Archive member included to satisfy reference by file (symbol)

d:/2.30/share/armgcc/bin/../lib/gcc/arm-none-eabi/9.3.1/thumb/v7e-m+fp/hard\libgcc.a(_arm_muldf3.o)
                              obj\debug\src\carregulators.o (__aeabi_dmul)
d:/2.30/share/armgcc/bin/../lib/gcc/arm-none-eabi/9.3.1/thumb/v7e-m+fp/hard\libgcc.a(_arm_addsubdf3.o)
                              obj\debug\src\robot_tasks.o (__aeabi_dsub)
d:/2.30/share/armgcc/bin/../lib/gcc/arm-none-eabi/9.3.1/thumb/v7e-m+fp/hard\libgcc.a(_arm_muldivdf3.o)
                              obj\debug\src\carregulators.o (__aeabi_ddiv)
d:/2.30/share/armgcc/bin/../lib/gcc/arm-none-eabi/9.3.1/thumb/v7e-m+fp/hard\libgcc.a(_arm_cmpdf2.o)
                              obj\debug\src\robot_tasks.o (__aeabi_dcmple)
d:/2.30/share/armgcc/bin/../lib/gcc/arm-none-eabi/9.3.1/thumb/v7e-m+fp/hard\libgcc.a(_arm_truncdfsf2.o)
                              obj\debug\src\carregulators.o (__aeabi_d2f)
d:/2.30/share/armgcc/bin/../lib/gcc/arm-none-eabi/9.3.1/../../../../arm-none-eabi/lib/thumb/v7e-m+fp/hard\libg_nano.a(lib_a-exit.o)
                              d:/2.30/share/armgcc/bin/../lib/gcc/arm-none-eabi/9.3.1/../../../../arm-none-eabi/lib/thumb/v7e-m+fp/hard/crt0.o (exit)
d:/2.30/share/armgcc/bin/../lib/gcc/arm-none-eabi/9.3.1/../../../../arm-none-eabi/lib/thumb/v7e-m+fp/hard\libg_nano.a(lib_a-impure.o)
                              d:/2.30/share/armgcc/bin/../lib/gcc/arm-none-eabi/9.3.1/../../../../arm-none-eabi/lib/thumb/v7e-m+fp/hard\libg_nano.a(lib_a-exit.o) (_global_impure_ptr)
d:/2.30/share/armgcc/bin/../lib/gcc/arm-none-eabi/9.3.1/../../../../arm-none-eabi/lib/thumb/v7e-m+fp/hard\libg_nano.a(lib_a-init.o)
                              d:/2.30/share/armgcc/bin/../lib/gcc/arm-none-eabi/9.3.1/../../../../arm-none-eabi/lib/thumb/v7e-m+fp/hard/crt0.o (__libc_init_array)
d:/2.30/share/armgcc/bin/../lib/gcc/arm-none-eabi/9.3.1/../../../../arm-none-eabi/lib/thumb/v7e-m+fp/hard\libg_nano.a(lib_a-memcpy-stub.o)
                              obj\debug\freertos_lib\queue.o (memcpy)
d:/2.30/share/armgcc/bin/../lib/gcc/arm-none-eabi/9.3.1/../../../../arm-none-eabi/lib/thumb/v7e-m+fp/hard\libg_nano.a(lib_a-memset.o)
                              d:/2.30/share/armgcc/bin/../lib/gcc/arm-none-eabi/9.3.1/../../../../arm-none-eabi/lib/thumb/v7e-m+fp/hard/crt0.o (memset)
d:/2.30/share/armgcc/bin/../lib/gcc/arm-none-eabi/9.3.1/../../../../arm-none-eabi/lib/thumb/v7e-m+fp/hard\libnosys.a(_exit.o)
                              d:/2.30/share/armgcc/bin/../lib/gcc/arm-none-eabi/9.3.1/../../../../arm-none-eabi/lib/thumb/v7e-m+fp/hard\libg_nano.a(lib_a-exit.o) (_exit)

Allocating common symbols
Common symbol       size              file

xRobotGo            0x4               obj\debug\fil lib\rcr dstu\rcr_setupcustom.o
xStartHandle        0x4               obj\debug\fil lib\rcr dstu\rcr_setupcustom.o
xGasHandle          0x4               obj\debug\fil lib\rcr dstu\rcr_setupcustom.o
LPulseWheel         0x2               obj\debug\fil lib\rcr dstu\rcr_setupcustom.o
UARTBufferEndMsgPointer
                    0x4               obj\debug\fil lib\rcr dstu\rcr_setupcustom.o
xQueueManagHandle   0x4               obj\debug\fil lib\rcr dstu\rcr_setupcustom.o
xStartEvent         0x4               obj\debug\fil lib\rcr dstu\rcr_setupcustom.o
UARTReceiver_Flag   0x4               obj\debug\fil lib\rcr dstu\rcr_setupcustom.o
xQueueClutchHandle  0x4               obj\debug\fil lib\rcr dstu\rcr_setupcustom.o
xBrakeHandle        0x4               obj\debug\fil lib\rcr dstu\rcr_setupcustom.o
globalRangeTransmission
                    0x4               obj\debug\fil lib\interrupts.o
xQueueRegistry      0x40              obj\debug\freertos_lib\queue.o
ZeroMesFlag         0x1               obj\debug\src\robot_tasks.o
Queue_StartIndex    0x4               obj\debug\fil lib\rcr dstu\rcr_setupcustom.o
Step                0x4               obj\debug\src\carregulators.o
xQueueBrakeHandle   0x4               obj\debug\fil lib\rcr dstu\rcr_setupcustom.o
xQueueTransmissionHandle
                    0x4               obj\debug\fil lib\rcr dstu\rcr_setupcustom.o
xEventStatus        0x4               obj\debug\fil lib\rcr dstu\rcr_setupcustom.o
Period_Right        0x4               obj\debug\fil lib\interrupts.o
xMailHandle         0x4               obj\debug\fil lib\rcr dstu\rcr_setupcustom.o
UART_Buffer         0xf               obj\debug\fil lib\rcr dstu\rcr_setupcustom.o
ErrorTask           0x4               obj\debug\src\robot_tasks.o
Brake_Flag          0x1               obj\debug\fil lib\rcr dstu\rcr_setupcustom.o
UARTBufferIndex     0x4               obj\debug\fil lib\rcr dstu\rcr_setupcustom.o
UARTTransmit_Flag   0x4               obj\debug\fil lib\rcr dstu\rcr_setupcustom.o
Clutch_Flag         0x4               obj\debug\fil lib\rcr dstu\rcr_setupcustom.o
xClutchHandle       0x4               obj\debug\fil lib\rcr dstu\rcr_setupcustom.o
xUARTEvent          0x4               obj\debug\fil lib\rcr dstu\rcr_setupcustom.o
xTrInit             0x4               obj\debug\fil lib\rcr dstu\rcr_setupcustom.o
Transmission_Flag   0x4               obj\debug\fil lib\rcr dstu\rcr_setupcustom.o
xWaitingHandle      0x4               obj\debug\fil lib\rcr dstu\rcr_setupcustom.o
xGearsHandle        0x4               obj\debug\fil lib\rcr dstu\rcr_setupcustom.o
LRCPointer          0x4               obj\debug\modbus\modbus.o
Queue_EndIndex      0x4               obj\debug\fil lib\rcr dstu\rcr_setupcustom.o
StartDataSendIndex  0x4               obj\debug\modbus\modbus.o
StartFlags          0x8               obj\debug\fil lib\rcr dstu\rcr_setupcustom.o
data                0x2               obj\debug\src\carmanagement.o
adc_data            0x12              obj\debug\fil lib\rcr dstu\rcr_setupcustom.o
QueueBuffer_To_UART
                    0xf               obj\debug\fil lib\rcr dstu\rcr_setupcustom.o
TargetSpeed         0x4               obj\debug\src\robot_tasks.o
QueueIndexTx        0x4               obj\debug\modbus\modbus.o
RPulseWheel         0x2               obj\debug\fil lib\rcr dstu\rcr_setupcustom.o
xQueueGasHandle     0x4               obj\debug\fil lib\rcr dstu\rcr_setupcustom.o
leftPeriod          0x4               obj\debug\src\carregulators.o
UARTBufferLRCIndex  0x4               obj\debug\fil lib\rcr dstu\rcr_setupcustom.o
xQueue20Handle      0x4               obj\debug\fil lib\rcr dstu\rcr_setupcustom.o
xModBusHandle       0x4               obj\debug\fil lib\rcr dstu\rcr_setupcustom.o
Queue_Index         0x4               obj\debug\fil lib\rcr dstu\rcr_setupcustom.o
rightPeriod         0x4               obj\debug\src\carregulators.o
Current_Velocity    0x4               obj\debug\fil lib\rcr dstu\rcr_setupcustom.o
Period_left         0x4               obj\debug\fil lib\interrupts.o
TransmissionReg     0x60              obj\debug\fil lib\rcr dstu\rcr_setupcustom.o
UARTBufferStartMsgPointer
                    0x4               obj\debug\fil lib\rcr dstu\rcr_setupcustom.o

Discarded input sections

 .text          0x00000000        0x0 d:/2.30/share/armgcc/bin/../lib/gcc/arm-none-eabi/9.3.1/thumb/v7e-m+fp/hard/crti.o
 .data          0x00000000        0x0 d:/2.30/share/armgcc/bin/../lib/gcc/arm-none-eabi/9.3.1/thumb/v7e-m+fp/hard/crti.o
 .bss           0x00000000        0x0 d:/2.30/share/armgcc/bin/../lib/gcc/arm-none-eabi/9.3.1/thumb/v7e-m+fp/hard/crti.o
 .data          0x00000000        0x4 d:/2.30/share/armgcc/bin/../lib/gcc/arm-none-eabi/9.3.1/thumb/v7e-m+fp/hard/crtbegin.o
 .text          0x00000000       0x7c d:/2.30/share/armgcc/bin/../lib/gcc/arm-none-eabi/9.3.1/../../../../arm-none-eabi/lib/thumb/v7e-m+fp/hard/crt0.o
 .data          0x00000000        0x0 d:/2.30/share/armgcc/bin/../lib/gcc/arm-none-eabi/9.3.1/../../../../arm-none-eabi/lib/thumb/v7e-m+fp/hard/crt0.o
 .bss           0x00000000        0x0 d:/2.30/share/armgcc/bin/../lib/gcc/arm-none-eabi/9.3.1/../../../../arm-none-eabi/lib/thumb/v7e-m+fp/hard/crt0.o
 .ARM.extab     0x00000000        0x0 d:/2.30/share/armgcc/bin/../lib/gcc/arm-none-eabi/9.3.1/../../../../arm-none-eabi/lib/thumb/v7e-m+fp/hard/crt0.o
 .ARM.exidx     0x00000000       0x10 d:/2.30/share/armgcc/bin/../lib/gcc/arm-none-eabi/9.3.1/../../../../arm-none-eabi/lib/thumb/v7e-m+fp/hard/crt0.o
 .ARM.attributes
                0x00000000       0x1c d:/2.30/share/armgcc/bin/../lib/gcc/arm-none-eabi/9.3.1/../../../../arm-none-eabi/lib/thumb/v7e-m+fp/hard/crt0.o
 .text          0x00000000       0x14 obj\debug\src\startup_stm32f407xx.o
 .data          0x00000000        0x0 obj\debug\src\startup_stm32f407xx.o
 .bss           0x00000000        0x0 obj\debug\src\startup_stm32f407xx.o
 .text          0x00000000        0x0 obj\debug\fil lib\rcr dstu\rcr_setupcustom.o
 .data          0x00000000        0x0 obj\debug\fil lib\rcr dstu\rcr_setupcustom.o
 .bss           0x00000000        0x0 obj\debug\fil lib\rcr dstu\rcr_setupcustom.o
 .data.prescaler_table
                0x00000000       0x10 obj\debug\fil lib\rcr dstu\rcr_setupcustom.o
 .text          0x00000000        0x0 obj\debug\freertos_lib\croutine.o
 .data          0x00000000        0x0 obj\debug\freertos_lib\croutine.o
 .bss           0x00000000        0x0 obj\debug\freertos_lib\croutine.o
 .debug_info    0x00000000       0xc0 obj\debug\freertos_lib\croutine.o
 .debug_abbrev  0x00000000       0x62 obj\debug\freertos_lib\croutine.o
 .debug_aranges
                0x00000000       0x18 obj\debug\freertos_lib\croutine.o
 .debug_line    0x00000000       0xd2 obj\debug\freertos_lib\croutine.o
 .debug_str     0x00000000      0x1db obj\debug\freertos_lib\croutine.o
 .comment       0x00000000       0x4d obj\debug\freertos_lib\croutine.o
 .ARM.attributes
                0x00000000       0x39 obj\debug\freertos_lib\croutine.o
 .text          0x00000000        0x0 obj\debug\freertos_lib\event_groups.o
 .data          0x00000000        0x0 obj\debug\freertos_lib\event_groups.o
 .bss           0x00000000        0x0 obj\debug\freertos_lib\event_groups.o
 .text.xEventGroupCreate
                0x00000000       0x2e obj\debug\freertos_lib\event_groups.o
 .text.xEventGroupSync
                0x00000000      0x188 obj\debug\freertos_lib\event_groups.o
 .text.xEventGroupWaitBits
                0x00000000      0x1c4 obj\debug\freertos_lib\event_groups.o
 .text.xEventGroupClearBits
                0x00000000       0x7c obj\debug\freertos_lib\event_groups.o
 .text.xEventGroupGetBitsFromISR
                0x00000000       0x48 obj\debug\freertos_lib\event_groups.o
 .text.xEventGroupSetBits
                0x00000000      0x128 obj\debug\freertos_lib\event_groups.o
 .text.vEventGroupDelete
                0x00000000       0x62 obj\debug\freertos_lib\event_groups.o
 .text.vEventGroupSetBitsCallback
                0x00000000       0x1e obj\debug\freertos_lib\event_groups.o
 .text.vEventGroupClearBitsCallback
                0x00000000       0x1e obj\debug\freertos_lib\event_groups.o
 .text.prvTestWaitCondition
                0x00000000       0x4c obj\debug\freertos_lib\event_groups.o
 .text.uxEventGroupGetNumber
                0x00000000       0x2c obj\debug\freertos_lib\event_groups.o
 .text.vEventGroupSetNumber
                0x00000000       0x1c obj\debug\freertos_lib\event_groups.o
 .debug_info    0x00000000     0x11f6 obj\debug\freertos_lib\event_groups.o
 .debug_abbrev  0x00000000      0x36a obj\debug\freertos_lib\event_groups.o
 .debug_aranges
                0x00000000       0x78 obj\debug\freertos_lib\event_groups.o
 .debug_ranges  0x00000000       0x68 obj\debug\freertos_lib\event_groups.o
 .debug_line    0x00000000      0x5d6 obj\debug\freertos_lib\event_groups.o
 .debug_str     0x00000000      0x9d4 obj\debug\freertos_lib\event_groups.o
 .comment       0x00000000       0x4d obj\debug\freertos_lib\event_groups.o
 .debug_frame   0x00000000      0x1d0 obj\debug\freertos_lib\event_groups.o
 .ARM.attributes
                0x00000000       0x34 obj\debug\freertos_lib\event_groups.o
 .text          0x00000000        0x0 obj\debug\freertos_lib\heap_2.o
 .data          0x00000000        0x0 obj\debug\freertos_lib\heap_2.o
 .bss           0x00000000        0x0 obj\debug\freertos_lib\heap_2.o
 .rodata.heapSTRUCT_SIZE
                0x00000000        0x2 obj\debug\freertos_lib\heap_2.o
 .text.xPortGetFreeHeapSize
                0x00000000       0x18 obj\debug\freertos_lib\heap_2.o
 .text.vPortInitialiseBlocks
                0x00000000        0xe obj\debug\freertos_lib\heap_2.o
 .text          0x00000000        0x0 obj\debug\freertos_lib\list.o
 .data          0x00000000        0x0 obj\debug\freertos_lib\list.o
 .bss           0x00000000        0x0 obj\debug\freertos_lib\list.o
 .text          0x00000000        0x0 obj\debug\freertos_lib\port.o
 .data          0x00000000        0x0 obj\debug\freertos_lib\port.o
 .bss           0x00000000        0x0 obj\debug\freertos_lib\port.o
 .rodata.pcInterruptPriorityRegisters
                0x00000000        0x4 obj\debug\freertos_lib\port.o
 .text.vPortEndScheduler
                0x00000000       0x38 obj\debug\freertos_lib\port.o
 .text          0x00000000        0x0 obj\debug\freertos_lib\queue.o
 .data          0x00000000        0x0 obj\debug\freertos_lib\queue.o
 .bss           0x00000000        0x0 obj\debug\freertos_lib\queue.o
 .text.prvInitialiseMutex
                0x00000000       0x34 obj\debug\freertos_lib\queue.o
 .text.xQueueCreateMutex
                0x00000000       0x30 obj\debug\freertos_lib\queue.o
 .text.xQueueGiveMutexRecursive
                0x00000000       0x68 obj\debug\freertos_lib\queue.o
 .text.xQueueTakeMutexRecursive
                0x00000000       0x70 obj\debug\freertos_lib\queue.o
 .text.xQueueCreateCountingSemaphore
                0x00000000       0x66 obj\debug\freertos_lib\queue.o
 .text.xQueueGiveFromISR
                0x00000000      0x138 obj\debug\freertos_lib\queue.o
 .text.xQueuePeek
                0x00000000      0x1c4 obj\debug\freertos_lib\queue.o
 .text.xQueueReceiveFromISR
                0x00000000      0x11e obj\debug\freertos_lib\queue.o
 .text.xQueuePeekFromISR
                0x00000000       0xd2 obj\debug\freertos_lib\queue.o
 .text.uxQueueMessagesWaiting
                0x00000000       0x3c obj\debug\freertos_lib\queue.o
 .text.uxQueueSpacesAvailable
                0x00000000       0x46 obj\debug\freertos_lib\queue.o
 .text.uxQueueMessagesWaitingFromISR
                0x00000000       0x3c obj\debug\freertos_lib\queue.o
 .text.vQueueDelete
                0x00000000       0x3c obj\debug\freertos_lib\queue.o
 .text.uxQueueGetQueueNumber
                0x00000000       0x18 obj\debug\freertos_lib\queue.o
 .text.vQueueSetQueueNumber
                0x00000000       0x1c obj\debug\freertos_lib\queue.o
 .text.ucQueueGetQueueType
                0x00000000       0x1a obj\debug\freertos_lib\queue.o
 .text.xQueueIsQueueEmptyFromISR
                0x00000000       0x48 obj\debug\freertos_lib\queue.o
 .text.xQueueIsQueueFullFromISR
                0x00000000       0x4c obj\debug\freertos_lib\queue.o
 .text.pcQueueGetName
                0x00000000       0x4c obj\debug\freertos_lib\queue.o
 .text.vQueueUnregisterQueue
                0x00000000       0x54 obj\debug\freertos_lib\queue.o
 .text          0x00000000        0x0 obj\debug\freertos_lib\stream_buffer.o
 .data          0x00000000        0x0 obj\debug\freertos_lib\stream_buffer.o
 .bss           0x00000000        0x0 obj\debug\freertos_lib\stream_buffer.o
 .text.xStreamBufferGenericCreate
                0x00000000       0xc4 obj\debug\freertos_lib\stream_buffer.o
 .text.vStreamBufferDelete
                0x00000000       0x4e obj\debug\freertos_lib\stream_buffer.o
 .text.xStreamBufferReset
                0x00000000       0x78 obj\debug\freertos_lib\stream_buffer.o
 .text.xStreamBufferSetTriggerLevel
                0x00000000       0x5c obj\debug\freertos_lib\stream_buffer.o
 .text.xStreamBufferSpacesAvailable
                0x00000000       0x66 obj\debug\freertos_lib\stream_buffer.o
 .text.xStreamBufferBytesAvailable
                0x00000000       0x3a obj\debug\freertos_lib\stream_buffer.o
 .text.xStreamBufferSend
                0x00000000      0x196 obj\debug\freertos_lib\stream_buffer.o
 .text.xStreamBufferSendFromISR
                0x00000000       0xe6 obj\debug\freertos_lib\stream_buffer.o
 .text.prvWriteMessageToBuffer
                0x00000000       0x7a obj\debug\freertos_lib\stream_buffer.o
 .text.xStreamBufferReceive
                0x00000000      0x134 obj\debug\freertos_lib\stream_buffer.o
 .text.xStreamBufferNextMessageLengthBytes
                0x00000000       0x92 obj\debug\freertos_lib\stream_buffer.o
 .text.xStreamBufferReceiveFromISR
                0x00000000       0xe2 obj\debug\freertos_lib\stream_buffer.o
 .text.prvReadMessageFromBuffer
                0x00000000       0x64 obj\debug\freertos_lib\stream_buffer.o
 .text.xStreamBufferIsEmpty
                0x00000000       0x50 obj\debug\freertos_lib\stream_buffer.o
 .text.xStreamBufferIsFull
                0x00000000       0x60 obj\debug\freertos_lib\stream_buffer.o
 .text.xStreamBufferSendCompletedFromISR
                0x00000000       0x8a obj\debug\freertos_lib\stream_buffer.o
 .text.xStreamBufferReceiveCompletedFromISR
                0x00000000       0x8a obj\debug\freertos_lib\stream_buffer.o
 .text.prvWriteBytesToBuffer
                0x00000000       0xe4 obj\debug\freertos_lib\stream_buffer.o
 .text.prvReadBytesFromBuffer
                0x00000000       0xf4 obj\debug\freertos_lib\stream_buffer.o
 .text.prvBytesInBuffer
                0x00000000       0x40 obj\debug\freertos_lib\stream_buffer.o
 .text.prvInitialiseNewStreamBuffer
                0x00000000       0x66 obj\debug\freertos_lib\stream_buffer.o
 .text.uxStreamBufferGetStreamBufferNumber
                0x00000000       0x18 obj\debug\freertos_lib\stream_buffer.o
 .text.vStreamBufferSetStreamBufferNumber
                0x00000000       0x1c obj\debug\freertos_lib\stream_buffer.o
 .text.ucStreamBufferGetStreamBufferType
                0x00000000       0x1e obj\debug\freertos_lib\stream_buffer.o
 .debug_info    0x00000000     0x1a50 obj\debug\freertos_lib\stream_buffer.o
 .debug_abbrev  0x00000000      0x3ca obj\debug\freertos_lib\stream_buffer.o
 .debug_aranges
                0x00000000       0xd8 obj\debug\freertos_lib\stream_buffer.o
 .debug_ranges  0x00000000       0xc8 obj\debug\freertos_lib\stream_buffer.o
 .debug_line    0x00000000      0xa7b obj\debug\freertos_lib\stream_buffer.o
 .debug_str     0x00000000      0xc1a obj\debug\freertos_lib\stream_buffer.o
 .comment       0x00000000       0x4d obj\debug\freertos_lib\stream_buffer.o
 .debug_frame   0x00000000      0x3a8 obj\debug\freertos_lib\stream_buffer.o
 .ARM.attributes
                0x00000000       0x34 obj\debug\freertos_lib\stream_buffer.o
 .text          0x00000000        0x0 obj\debug\freertos_lib\tasks.o
 .data          0x00000000        0x0 obj\debug\freertos_lib\tasks.o
 .bss           0x00000000        0x0 obj\debug\freertos_lib\tasks.o
 .text.vTaskDelete
                0x00000000      0x120 obj\debug\freertos_lib\tasks.o
 .text.eTaskGetState
                0x00000000       0xf4 obj\debug\freertos_lib\tasks.o
 .text.uxTaskPriorityGet
                0x00000000       0x34 obj\debug\freertos_lib\tasks.o
 .text.uxTaskPriorityGetFromISR
                0x00000000       0x58 obj\debug\freertos_lib\tasks.o
 .text.xTaskResumeFromISR
                0x00000000       0xec obj\debug\freertos_lib\tasks.o
 .text.vTaskEndScheduler
                0x00000000       0x30 obj\debug\freertos_lib\tasks.o
 .text.xTaskGetTickCountFromISR
                0x00000000       0x48 obj\debug\freertos_lib\tasks.o
 .text.uxTaskGetNumberOfTasks
                0x00000000       0x18 obj\debug\freertos_lib\tasks.o
 .text.pcTaskGetName
                0x00000000       0x48 obj\debug\freertos_lib\tasks.o
 .text.uxTaskGetSystemState
                0x00000000      0x11c obj\debug\freertos_lib\tasks.o
 .text.xTaskCatchUpTicks
                0x00000000       0x54 obj\debug\freertos_lib\tasks.o
 .text.vTaskPlaceOnUnorderedEventList
                0x00000000       0x84 obj\debug\freertos_lib\tasks.o
 .text.vTaskRemoveFromUnorderedEventList
                0x00000000       0xcc obj\debug\freertos_lib\tasks.o
 .text.vTaskSetTimeOutState
                0x00000000       0x50 obj\debug\freertos_lib\tasks.o
 .text.uxTaskGetTaskNumber
                0x00000000       0x2c obj\debug\freertos_lib\tasks.o
 .text.vTaskSetTaskNumber
                0x00000000       0x26 obj\debug\freertos_lib\tasks.o
 .text.vTaskGetInfo
                0x00000000       0xcc obj\debug\freertos_lib\tasks.o
 .text.prvListTasksWithinSingleList
                0x00000000       0xa4 obj\debug\freertos_lib\tasks.o
 .text.prvTaskCheckFreeStackSpace
                0x00000000       0x38 obj\debug\freertos_lib\tasks.o
 .text.xTaskGetCurrentTaskHandle
                0x00000000       0x20 obj\debug\freertos_lib\tasks.o
 .text.uxTaskResetEventItemValue
                0x00000000       0x34 obj\debug\freertos_lib\tasks.o
 .text.ulTaskGenericNotifyTake
                0x00000000       0xd4 obj\debug\freertos_lib\tasks.o
 .text.xTaskGenericNotifyWait
                0x00000000      0x100 obj\debug\freertos_lib\tasks.o
 .text.xTaskGenericNotify
                0x00000000      0x1c4 obj\debug\freertos_lib\tasks.o
 .text.xTaskGenericNotifyFromISR
                0x00000000      0x208 obj\debug\freertos_lib\tasks.o
 .text.vTaskGenericNotifyGiveFromISR
                0x00000000      0x158 obj\debug\freertos_lib\tasks.o
 .text.xTaskGenericNotifyStateClear
                0x00000000       0x74 obj\debug\freertos_lib\tasks.o
 .text.ulTaskGenericNotifyValueClear
                0x00000000       0x5c obj\debug\freertos_lib\tasks.o
 .text          0x00000000        0x0 obj\debug\freertos_lib\timers.o
 .data          0x00000000        0x0 obj\debug\freertos_lib\timers.o
 .bss           0x00000000        0x0 obj\debug\freertos_lib\timers.o
 .text.xTimerCreate
                0x00000000       0x44 obj\debug\freertos_lib\timers.o
 .text.prvInitialiseNewTimer
                0x00000000       0x78 obj\debug\freertos_lib\timers.o
 .text.xTimerGetTimerDaemonTaskHandle
                0x00000000       0x38 obj\debug\freertos_lib\timers.o
 .text.xTimerGetPeriod
                0x00000000       0x38 obj\debug\freertos_lib\timers.o
 .text.vTimerSetReloadMode
                0x00000000       0x66 obj\debug\freertos_lib\timers.o
 .text.uxTimerGetReloadMode
                0x00000000       0x52 obj\debug\freertos_lib\timers.o
 .text.xTimerGetExpiryTime
                0x00000000       0x3c obj\debug\freertos_lib\timers.o
 .text.pcTimerGetName
                0x00000000       0x38 obj\debug\freertos_lib\timers.o
 .text.xTimerIsTimerActive
                0x00000000       0x52 obj\debug\freertos_lib\timers.o
 .text.pvTimerGetTimerID
                0x00000000       0x40 obj\debug\freertos_lib\timers.o
 .text.vTimerSetTimerID
                0x00000000       0x40 obj\debug\freertos_lib\timers.o
 .text.uxTimerGetTimerNumber
                0x00000000       0x18 obj\debug\freertos_lib\timers.o
 .text.vTimerSetTimerNumber
                0x00000000       0x1c obj\debug\freertos_lib\timers.o
 .text          0x00000000        0x0 obj\debug\modbus\modbus.o
 .data          0x00000000        0x0 obj\debug\modbus\modbus.o
 .bss           0x00000000        0x0 obj\debug\modbus\modbus.o
 .data.prescaler_table
                0x00000000       0x10 obj\debug\modbus\modbus.o
 .text          0x00000000        0x0 obj\debug\src\carmanagement.o
 .data          0x00000000        0x0 obj\debug\src\carmanagement.o
 .bss           0x00000000        0x0 obj\debug\src\carmanagement.o
 .data.prescaler_table
                0x00000000       0x10 obj\debug\src\carmanagement.o
 .text.Recovery_Transmission
                0x00000000      0x160 obj\debug\src\carmanagement.o
 .text          0x00000000        0x0 obj\debug\src\carregulators.o
 .data          0x00000000        0x0 obj\debug\src\carregulators.o
 .bss           0x00000000        0x0 obj\debug\src\carregulators.o
 .data.prescaler_table
                0x00000000       0x10 obj\debug\src\carregulators.o
 .text.Speed_Calc_Car
                0x00000000      0x134 obj\debug\src\carregulators.o
 .text          0x00000000        0x0 obj\debug\src\main.o
 .data          0x00000000        0x0 obj\debug\src\main.o
 .bss           0x00000000        0x0 obj\debug\src\main.o
 .data.prescaler_table
                0x00000000       0x10 obj\debug\src\main.o
 .bss.once      0x00000000        0x1 obj\debug\src\main.o
 .bss.transmission
                0x00000000        0x4 obj\debug\src\main.o
 .text          0x00000000        0x0 obj\debug\src\robot_tasks.o
 .data          0x00000000        0x0 obj\debug\src\robot_tasks.o
 .bss           0x00000000        0x0 obj\debug\src\robot_tasks.o
 .data.prescaler_table
                0x00000000       0x10 obj\debug\src\robot_tasks.o
 .bss.Start     0x00000000        0x1 obj\debug\src\robot_tasks.o
 .text          0x00000000        0x0 obj\debug\fil lib\interrupts.o
 .data          0x00000000        0x0 obj\debug\fil lib\interrupts.o
 .bss           0x00000000        0x0 obj\debug\fil lib\interrupts.o
 .data.prescaler_table
                0x00000000       0x10 obj\debug\fil lib\interrupts.o
 .bss.TransmissionPWM
                0x00000000        0x4 obj\debug\fil lib\interrupts.o
 .bss.direction
                0x00000000        0x4 obj\debug\fil lib\interrupts.o
 .text.TIM1_IRQHandler
                0x00000000       0x18 obj\debug\fil lib\interrupts.o
 .bss.globalRangeCar
                0x00000000        0x4 obj\debug\fil lib\interrupts.o
 .text          0x00000000        0x0 obj\debug\src\system_stm32f4xx.o
 .data          0x00000000        0x0 obj\debug\src\system_stm32f4xx.o
 .bss           0x00000000        0x0 obj\debug\src\system_stm32f4xx.o
 .data.AHBPrescTable
                0x00000000       0x10 obj\debug\src\system_stm32f4xx.o
 .text.SystemCoreClockUpdate
                0x00000000      0x104 obj\debug\src\system_stm32f4xx.o
 .text          0x00000000      0x254 d:/2.30/share/armgcc/bin/../lib/gcc/arm-none-eabi/9.3.1/thumb/v7e-m+fp/hard\libgcc.a(_arm_muldf3.o)
 .data          0x00000000        0x0 d:/2.30/share/armgcc/bin/../lib/gcc/arm-none-eabi/9.3.1/thumb/v7e-m+fp/hard\libgcc.a(_arm_muldf3.o)
 .bss           0x00000000        0x0 d:/2.30/share/armgcc/bin/../lib/gcc/arm-none-eabi/9.3.1/thumb/v7e-m+fp/hard\libgcc.a(_arm_muldf3.o)
 .debug_frame   0x00000000       0x30 d:/2.30/share/armgcc/bin/../lib/gcc/arm-none-eabi/9.3.1/thumb/v7e-m+fp/hard\libgcc.a(_arm_muldf3.o)
 .ARM.attributes
                0x00000000       0x1e d:/2.30/share/armgcc/bin/../lib/gcc/arm-none-eabi/9.3.1/thumb/v7e-m+fp/hard\libgcc.a(_arm_muldf3.o)
 .data          0x00000000        0x0 d:/2.30/share/armgcc/bin/../lib/gcc/arm-none-eabi/9.3.1/thumb/v7e-m+fp/hard\libgcc.a(_arm_addsubdf3.o)
 .bss           0x00000000        0x0 d:/2.30/share/armgcc/bin/../lib/gcc/arm-none-eabi/9.3.1/thumb/v7e-m+fp/hard\libgcc.a(_arm_addsubdf3.o)
 .data          0x00000000        0x0 d:/2.30/share/armgcc/bin/../lib/gcc/arm-none-eabi/9.3.1/thumb/v7e-m+fp/hard\libgcc.a(_arm_muldivdf3.o)
 .bss           0x00000000        0x0 d:/2.30/share/armgcc/bin/../lib/gcc/arm-none-eabi/9.3.1/thumb/v7e-m+fp/hard\libgcc.a(_arm_muldivdf3.o)
 .data          0x00000000        0x0 d:/2.30/share/armgcc/bin/../lib/gcc/arm-none-eabi/9.3.1/thumb/v7e-m+fp/hard\libgcc.a(_arm_cmpdf2.o)
 .bss           0x00000000        0x0 d:/2.30/share/armgcc/bin/../lib/gcc/arm-none-eabi/9.3.1/thumb/v7e-m+fp/hard\libgcc.a(_arm_cmpdf2.o)
 .data          0x00000000        0x0 d:/2.30/share/armgcc/bin/../lib/gcc/arm-none-eabi/9.3.1/thumb/v7e-m+fp/hard\libgcc.a(_arm_truncdfsf2.o)
 .bss           0x00000000        0x0 d:/2.30/share/armgcc/bin/../lib/gcc/arm-none-eabi/9.3.1/thumb/v7e-m+fp/hard\libgcc.a(_arm_truncdfsf2.o)
 .text          0x00000000        0x0 d:/2.30/share/armgcc/bin/../lib/gcc/arm-none-eabi/9.3.1/../../../../arm-none-eabi/lib/thumb/v7e-m+fp/hard\libg_nano.a(lib_a-exit.o)
 .data          0x00000000        0x0 d:/2.30/share/armgcc/bin/../lib/gcc/arm-none-eabi/9.3.1/../../../../arm-none-eabi/lib/thumb/v7e-m+fp/hard\libg_nano.a(lib_a-exit.o)
 .bss           0x00000000        0x0 d:/2.30/share/armgcc/bin/../lib/gcc/arm-none-eabi/9.3.1/../../../../arm-none-eabi/lib/thumb/v7e-m+fp/hard\libg_nano.a(lib_a-exit.o)
 .text.exit     0x00000000       0x28 d:/2.30/share/armgcc/bin/../lib/gcc/arm-none-eabi/9.3.1/../../../../arm-none-eabi/lib/thumb/v7e-m+fp/hard\libg_nano.a(lib_a-exit.o)
 .debug_frame   0x00000000       0x28 d:/2.30/share/armgcc/bin/../lib/gcc/arm-none-eabi/9.3.1/../../../../arm-none-eabi/lib/thumb/v7e-m+fp/hard\libg_nano.a(lib_a-exit.o)
 .ARM.attributes
                0x00000000       0x34 d:/2.30/share/armgcc/bin/../lib/gcc/arm-none-eabi/9.3.1/../../../../arm-none-eabi/lib/thumb/v7e-m+fp/hard\libg_nano.a(lib_a-exit.o)
 .text          0x00000000        0x0 d:/2.30/share/armgcc/bin/../lib/gcc/arm-none-eabi/9.3.1/../../../../arm-none-eabi/lib/thumb/v7e-m+fp/hard\libg_nano.a(lib_a-impure.o)
 .data          0x00000000        0x0 d:/2.30/share/armgcc/bin/../lib/gcc/arm-none-eabi/9.3.1/../../../../arm-none-eabi/lib/thumb/v7e-m+fp/hard\libg_nano.a(lib_a-impure.o)
 .bss           0x00000000        0x0 d:/2.30/share/armgcc/bin/../lib/gcc/arm-none-eabi/9.3.1/../../../../arm-none-eabi/lib/thumb/v7e-m+fp/hard\libg_nano.a(lib_a-impure.o)
 .data._impure_ptr
                0x00000000        0x4 d:/2.30/share/armgcc/bin/../lib/gcc/arm-none-eabi/9.3.1/../../../../arm-none-eabi/lib/thumb/v7e-m+fp/hard\libg_nano.a(lib_a-impure.o)
 .data.impure_data
                0x00000000       0x60 d:/2.30/share/armgcc/bin/../lib/gcc/arm-none-eabi/9.3.1/../../../../arm-none-eabi/lib/thumb/v7e-m+fp/hard\libg_nano.a(lib_a-impure.o)
 .rodata._global_impure_ptr
                0x00000000        0x4 d:/2.30/share/armgcc/bin/../lib/gcc/arm-none-eabi/9.3.1/../../../../arm-none-eabi/lib/thumb/v7e-m+fp/hard\libg_nano.a(lib_a-impure.o)
 .ARM.attributes
                0x00000000       0x32 d:/2.30/share/armgcc/bin/../lib/gcc/arm-none-eabi/9.3.1/../../../../arm-none-eabi/lib/thumb/v7e-m+fp/hard\libg_nano.a(lib_a-impure.o)
 .text          0x00000000        0x0 d:/2.30/share/armgcc/bin/../lib/gcc/arm-none-eabi/9.3.1/../../../../arm-none-eabi/lib/thumb/v7e-m+fp/hard\libg_nano.a(lib_a-init.o)
 .data          0x00000000        0x0 d:/2.30/share/armgcc/bin/../lib/gcc/arm-none-eabi/9.3.1/../../../../arm-none-eabi/lib/thumb/v7e-m+fp/hard\libg_nano.a(lib_a-init.o)
 .bss           0x00000000        0x0 d:/2.30/share/armgcc/bin/../lib/gcc/arm-none-eabi/9.3.1/../../../../arm-none-eabi/lib/thumb/v7e-m+fp/hard\libg_nano.a(lib_a-init.o)
 .text.__libc_init_array
                0x00000000       0x48 d:/2.30/share/armgcc/bin/../lib/gcc/arm-none-eabi/9.3.1/../../../../arm-none-eabi/lib/thumb/v7e-m+fp/hard\libg_nano.a(lib_a-init.o)
 .debug_frame   0x00000000       0x2c d:/2.30/share/armgcc/bin/../lib/gcc/arm-none-eabi/9.3.1/../../../../arm-none-eabi/lib/thumb/v7e-m+fp/hard\libg_nano.a(lib_a-init.o)
 .ARM.attributes
                0x00000000       0x34 d:/2.30/share/armgcc/bin/../lib/gcc/arm-none-eabi/9.3.1/../../../../arm-none-eabi/lib/thumb/v7e-m+fp/hard\libg_nano.a(lib_a-init.o)
 .text          0x00000000        0x0 d:/2.30/share/armgcc/bin/../lib/gcc/arm-none-eabi/9.3.1/../../../../arm-none-eabi/lib/thumb/v7e-m+fp/hard\libg_nano.a(lib_a-memcpy-stub.o)
 .data          0x00000000        0x0 d:/2.30/share/armgcc/bin/../lib/gcc/arm-none-eabi/9.3.1/../../../../arm-none-eabi/lib/thumb/v7e-m+fp/hard\libg_nano.a(lib_a-memcpy-stub.o)
 .bss           0x00000000        0x0 d:/2.30/share/armgcc/bin/../lib/gcc/arm-none-eabi/9.3.1/../../../../arm-none-eabi/lib/thumb/v7e-m+fp/hard\libg_nano.a(lib_a-memcpy-stub.o)
 .text          0x00000000        0x0 d:/2.30/share/armgcc/bin/../lib/gcc/arm-none-eabi/9.3.1/../../../../arm-none-eabi/lib/thumb/v7e-m+fp/hard\libg_nano.a(lib_a-memset.o)
 .data          0x00000000        0x0 d:/2.30/share/armgcc/bin/../lib/gcc/arm-none-eabi/9.3.1/../../../../arm-none-eabi/lib/thumb/v7e-m+fp/hard\libg_nano.a(lib_a-memset.o)
 .bss           0x00000000        0x0 d:/2.30/share/armgcc/bin/../lib/gcc/arm-none-eabi/9.3.1/../../../../arm-none-eabi/lib/thumb/v7e-m+fp/hard\libg_nano.a(lib_a-memset.o)
 .text          0x00000000        0x0 d:/2.30/share/armgcc/bin/../lib/gcc/arm-none-eabi/9.3.1/../../../../arm-none-eabi/lib/thumb/v7e-m+fp/hard\libnosys.a(_exit.o)
 .data          0x00000000        0x0 d:/2.30/share/armgcc/bin/../lib/gcc/arm-none-eabi/9.3.1/../../../../arm-none-eabi/lib/thumb/v7e-m+fp/hard\libnosys.a(_exit.o)
 .bss           0x00000000        0x0 d:/2.30/share/armgcc/bin/../lib/gcc/arm-none-eabi/9.3.1/../../../../arm-none-eabi/lib/thumb/v7e-m+fp/hard\libnosys.a(_exit.o)
 .text._exit    0x00000000        0x4 d:/2.30/share/armgcc/bin/../lib/gcc/arm-none-eabi/9.3.1/../../../../arm-none-eabi/lib/thumb/v7e-m+fp/hard\libnosys.a(_exit.o)
 .debug_frame   0x00000000       0x20 d:/2.30/share/armgcc/bin/../lib/gcc/arm-none-eabi/9.3.1/../../../../arm-none-eabi/lib/thumb/v7e-m+fp/hard\libnosys.a(_exit.o)
 .ARM.attributes
                0x00000000       0x34 d:/2.30/share/armgcc/bin/../lib/gcc/arm-none-eabi/9.3.1/../../../../arm-none-eabi/lib/thumb/v7e-m+fp/hard\libnosys.a(_exit.o)
 .text          0x00000000        0x0 d:/2.30/share/armgcc/bin/../lib/gcc/arm-none-eabi/9.3.1/thumb/v7e-m+fp/hard/crtend.o
 .data          0x00000000        0x0 d:/2.30/share/armgcc/bin/../lib/gcc/arm-none-eabi/9.3.1/thumb/v7e-m+fp/hard/crtend.o
 .bss           0x00000000        0x0 d:/2.30/share/armgcc/bin/../lib/gcc/arm-none-eabi/9.3.1/thumb/v7e-m+fp/hard/crtend.o
 .eh_frame      0x00000000        0x4 d:/2.30/share/armgcc/bin/../lib/gcc/arm-none-eabi/9.3.1/thumb/v7e-m+fp/hard/crtend.o
 .ARM.attributes
                0x00000000       0x32 d:/2.30/share/armgcc/bin/../lib/gcc/arm-none-eabi/9.3.1/thumb/v7e-m+fp/hard/crtend.o
 .text          0x00000000        0x0 d:/2.30/share/armgcc/bin/../lib/gcc/arm-none-eabi/9.3.1/thumb/v7e-m+fp/hard/crtn.o
 .data          0x00000000        0x0 d:/2.30/share/armgcc/bin/../lib/gcc/arm-none-eabi/9.3.1/thumb/v7e-m+fp/hard/crtn.o
 .bss           0x00000000        0x0 d:/2.30/share/armgcc/bin/../lib/gcc/arm-none-eabi/9.3.1/thumb/v7e-m+fp/hard/crtn.o

Memory Configuration

Name             Origin             Length             Attributes
FLASH            0x08000000         0x00100000         xr
RAM              0x20000000         0x00020000         xrw
CCMRAM           0x10000000         0x00010000         xrw
*default*        0x00000000         0xffffffff

Linker script and memory map

LOAD d:/2.30/share/armgcc/bin/../lib/gcc/arm-none-eabi/9.3.1/thumb/v7e-m+fp/hard/crti.o
LOAD d:/2.30/share/armgcc/bin/../lib/gcc/arm-none-eabi/9.3.1/thumb/v7e-m+fp/hard/crtbegin.o
LOAD d:/2.30/share/armgcc/bin/../lib/gcc/arm-none-eabi/9.3.1/../../../../arm-none-eabi/lib/thumb/v7e-m+fp/hard/crt0.o
                0x00000000                __HEAP_SIZE = 0x0
                0x00000100                __STACK_SIZE = 0x100
                0x00000000                _Min_Heap_Size = __HEAP_SIZE
                0x00000100                _Min_Stack_Size = __STACK_SIZE
                0x20020000                _estack = (ORIGIN (RAM) + LENGTH (RAM))

.isr_vector     0x08000000      0x188
                0x08000000                . = ALIGN (0x4)
 *(.isr_vector)
 .isr_vector    0x08000000      0x188 obj\debug\src\startup_stm32f407xx.o
                0x08000000                g_pfnVectors
                0x08000188                . = ALIGN (0x4)

.text           0x08000190     0x80b0
                0x08000190                . = ALIGN (0x4)
 *(.text)
 .text          0x08000190       0x40 d:/2.30/share/armgcc/bin/../lib/gcc/arm-none-eabi/9.3.1/thumb/v7e-m+fp/hard/crtbegin.o
 .text          0x080001d0      0x378 d:/2.30/share/armgcc/bin/../lib/gcc/arm-none-eabi/9.3.1/thumb/v7e-m+fp/hard\libgcc.a(_arm_addsubdf3.o)
                0x080001d0                __aeabi_drsub
                0x080001d8                __aeabi_dsub
                0x080001d8                __subdf3
                0x080001dc                __aeabi_dadd
                0x080001dc                __adddf3
                0x08000454                __floatunsidf
                0x08000454                __aeabi_ui2d
                0x08000474                __floatsidf
                0x08000474                __aeabi_i2d
                0x08000498                __aeabi_f2d
                0x08000498                __extendsfdf2
                0x080004dc                __floatundidf
                0x080004dc                __aeabi_ul2d
                0x080004ec                __floatdidf
                0x080004ec                __aeabi_l2d
 .text          0x08000548      0x424 d:/2.30/share/armgcc/bin/../lib/gcc/arm-none-eabi/9.3.1/thumb/v7e-m+fp/hard\libgcc.a(_arm_muldivdf3.o)
                0x08000548                __aeabi_dmul
                0x08000548                __muldf3
                0x0800079c                __divdf3
                0x0800079c                __aeabi_ddiv
 .text          0x0800096c      0x110 d:/2.30/share/armgcc/bin/../lib/gcc/arm-none-eabi/9.3.1/thumb/v7e-m+fp/hard\libgcc.a(_arm_cmpdf2.o)
                0x0800096c                __gtdf2
                0x0800096c                __gedf2
                0x08000974                __ltdf2
                0x08000974                __ledf2
                0x0800097c                __nedf2
                0x0800097c                __eqdf2
                0x0800097c                __cmpdf2
                0x080009f8                __aeabi_cdrcmple
                0x08000a08                __aeabi_cdcmpeq
                0x08000a08                __aeabi_cdcmple
                0x08000a18                __aeabi_dcmpeq
                0x08000a2c                __aeabi_dcmplt
                0x08000a40                __aeabi_dcmple
                0x08000a54                __aeabi_dcmpge
                0x08000a68                __aeabi_dcmpgt
 .text          0x08000a7c       0xa0 d:/2.30/share/armgcc/bin/../lib/gcc/arm-none-eabi/9.3.1/thumb/v7e-m+fp/hard\libgcc.a(_arm_truncdfsf2.o)
                0x08000a7c                __truncdfsf2
                0x08000a7c                __aeabi_d2f
 *(.text*)
 .text.Reset_Handler
                0x08000b1c       0x4c obj\debug\src\startup_stm32f407xx.o
                0x08000b1c                Reset_Handler
 .text.Default_Handler
                0x08000b68        0x2 obj\debug\src\startup_stm32f407xx.o
                0x08000b68                RTC_Alarm_IRQHandler
                0x08000b68                HASH_RNG_IRQHandler
                0x08000b68                TIM8_CC_IRQHandler
                0x08000b68                DebugMon_Handler
                0x08000b68                TIM1_CC_IRQHandler
                0x08000b68                DMA2_Stream5_IRQHandler
                0x08000b68                HardFault_Handler
                0x08000b68                DMA1_Stream5_IRQHandler
                0x08000b68                PVD_IRQHandler
                0x08000b68                SDIO_IRQHandler
                0x08000b68                TAMP_STAMP_IRQHandler
                0x08000b68                NMI_Handler
                0x08000b68                CAN2_RX1_IRQHandler
                0x08000b68                TIM8_TRG_COM_TIM14_IRQHandler
                0x08000b68                TIM1_UP_TIM10_IRQHandler
                0x08000b68                I2C3_ER_IRQHandler
                0x08000b68                I2C2_EV_IRQHandler
                0x08000b68                DMA1_Stream2_IRQHandler
                0x08000b68                CAN1_RX0_IRQHandler
                0x08000b68                FPU_IRQHandler
                0x08000b68                OTG_HS_WKUP_IRQHandler
                0x08000b68                UsageFault_Handler
                0x08000b68                CAN2_SCE_IRQHandler
                0x08000b68                DMA2_Stream2_IRQHandler
                0x08000b68                SPI1_IRQHandler
                0x08000b68                TIM1_BRK_TIM9_IRQHandler
                0x08000b68                DCMI_IRQHandler
                0x08000b68                CAN2_RX0_IRQHandler
                0x08000b68                DMA2_Stream3_IRQHandler
                0x08000b68                USART6_IRQHandler
                0x08000b68                CAN1_RX1_IRQHandler
                0x08000b68                UART5_IRQHandler
                0x08000b68                DMA2_Stream0_IRQHandler
                0x08000b68                I2C1_EV_IRQHandler
                0x08000b68                DMA1_Stream6_IRQHandler
                0x08000b68                DMA1_Stream1_IRQHandler
                0x08000b68                UART4_IRQHandler
                0x08000b68                RCC_IRQHandler
                0x08000b68                TIM8_BRK_TIM12_IRQHandler
                0x08000b68                Default_Handler
                0x08000b68                ADC_IRQHandler
                0x08000b68                DMA1_Stream7_IRQHandler
                0x08000b68                CAN2_TX_IRQHandler
                0x08000b68                DMA2_Stream7_IRQHandler
                0x08000b68                I2C3_EV_IRQHandler
                0x08000b68                RTC_WKUP_IRQHandler
                0x08000b68                ETH_WKUP_IRQHandler
                0x08000b68                SPI2_IRQHandler
                0x08000b68                OTG_HS_EP1_IN_IRQHandler
                0x08000b68                MemManage_Handler
                0x08000b68                DMA1_Stream0_IRQHandler
                0x08000b68                CAN1_TX_IRQHandler
                0x08000b68                FSMC_IRQHandler
                0x08000b68                ETH_IRQHandler
                0x08000b68                OTG_HS_EP1_OUT_IRQHandler
                0x08000b68                WWDG_IRQHandler
                0x08000b68                OTG_FS_WKUP_IRQHandler
                0x08000b68                TIM1_TRG_COM_TIM11_IRQHandler
                0x08000b68                OTG_HS_IRQHandler
                0x08000b68                USART2_IRQHandler
                0x08000b68                I2C2_ER_IRQHandler
                0x08000b68                DMA2_Stream1_IRQHandler
                0x08000b68                CAN1_SCE_IRQHandler
                0x08000b68                FLASH_IRQHandler
                0x08000b68                DMA2_Stream4_IRQHandler
                0x08000b68                BusFault_Handler
                0x08000b68                USART1_IRQHandler
                0x08000b68                OTG_FS_IRQHandler
                0x08000b68                SPI3_IRQHandler
                0x08000b68                DMA1_Stream4_IRQHandler
                0x08000b68                I2C1_ER_IRQHandler
                0x08000b68                DMA2_Stream6_IRQHandler
                0x08000b68                DMA1_Stream3_IRQHandler
 *fill*         0x08000b6a        0x2 
 .text.__NVIC_EnableIRQ
                0x08000b6c       0x3c obj\debug\fil lib\rcr dstu\rcr_setupcustom.o
 .text.__NVIC_SetPriority
                0x08000ba8       0x54 obj\debug\fil lib\rcr dstu\rcr_setupcustom.o
 .text.SysTick_Config
                0x08000bfc       0x44 obj\debug\fil lib\rcr dstu\rcr_setupcustom.o
 .text.BoardStart
                0x08000c40     0x1558 obj\debug\fil lib\rcr dstu\rcr_setupcustom.o
                0x08000c40                BoardStart
 .text.ADC_Init
                0x08002198      0x124 obj\debug\fil lib\rcr dstu\rcr_setupcustom.o
                0x08002198                ADC_Init
 .text.InterruptsEnable
                0x080022bc       0x32 obj\debug\fil lib\rcr dstu\rcr_setupcustom.o
                0x080022bc                InterruptsEnable
 *fill*         0x080022ee        0x2 
 .text.TimEngineClutchConfigure
                0x080022f0       0xd4 obj\debug\fil lib\rcr dstu\rcr_setupcustom.o
                0x080022f0                TimEngineClutchConfigure
 .text.TimGasConfigure
                0x080023c4       0xc4 obj\debug\fil lib\rcr dstu\rcr_setupcustom.o
                0x080023c4                TimGasConfigure
 .text.add_ext_interrupt
                0x08002488      0x120 obj\debug\fil lib\rcr dstu\rcr_setupcustom.o
                0x08002488                add_ext_interrupt
 .text.SetPWM   0x080025a8      0x110 obj\debug\fil lib\rcr dstu\rcr_setupcustom.o
                0x080025a8                SetPWM
 .text.pvPortMalloc
                0x080026b8      0x164 obj\debug\freertos_lib\heap_2.o
                0x080026b8                pvPortMalloc
 .text.vPortFree
                0x0800281c       0x74 obj\debug\freertos_lib\heap_2.o
                0x0800281c                vPortFree
 .text.prvHeapInit
                0x08002890       0x54 obj\debug\freertos_lib\heap_2.o
 .text.vListInitialise
                0x080028e4       0x40 obj\debug\freertos_lib\list.o
                0x080028e4                vListInitialise
 .text.vListInitialiseItem
                0x08002924       0x1a obj\debug\freertos_lib\list.o
                0x08002924                vListInitialiseItem
 .text.vListInsertEnd
                0x0800293e       0x48 obj\debug\freertos_lib\list.o
                0x0800293e                vListInsertEnd
 .text.vListInsert
                0x08002986       0x74 obj\debug\freertos_lib\list.o
                0x08002986                vListInsert
 .text.uxListRemove
                0x080029fa       0x54 obj\debug\freertos_lib\list.o
                0x080029fa                uxListRemove
 *fill*         0x08002a4e        0x2 
 .text.pxPortInitialiseStack
                0x08002a50       0x68 obj\debug\freertos_lib\port.o
                0x08002a50                pxPortInitialiseStack
 .text.prvTaskExitError
                0x08002ab8       0x58 obj\debug\freertos_lib\port.o
 .text.SVC_Handler
                0x08002b10       0x28 obj\debug\freertos_lib\port.o
                0x08002b10                SVC_Handler
 .text.prvPortStartFirstTask
                0x08002b38       0x2c obj\debug\freertos_lib\port.o
 .text.xPortStartScheduler
                0x08002b64      0x164 obj\debug\freertos_lib\port.o
                0x08002b64                xPortStartScheduler
 .text.vPortEnterCritical
                0x08002cc8       0x60 obj\debug\freertos_lib\port.o
                0x08002cc8                vPortEnterCritical
 .text.vPortExitCritical
                0x08002d28       0x54 obj\debug\freertos_lib\port.o
                0x08002d28                vPortExitCritical
 *fill*         0x08002d7c        0x4 
 .text.PendSV_Handler
                0x08002d80       0x68 obj\debug\freertos_lib\port.o
                0x08002d80                PendSV_Handler
 .text.SysTick_Handler
                0x08002de8       0x44 obj\debug\freertos_lib\port.o
                0x08002de8                SysTick_Handler
 .text.vPortSetupTimerInterrupt
                0x08002e2c       0x48 obj\debug\freertos_lib\port.o
                0x08002e2c                vPortSetupTimerInterrupt
 .text.vPortEnableVFP
                0x08002e74       0x18 obj\debug\freertos_lib\port.o
 .text.vPortValidateInterruptPriority
                0x08002e8c       0x80 obj\debug\freertos_lib\port.o
                0x08002e8c                vPortValidateInterruptPriority
 .text.xQueueGenericReset
                0x08002f0c       0xd0 obj\debug\freertos_lib\queue.o
                0x08002f0c                xQueueGenericReset
 .text.xQueueGenericCreate
                0x08002fdc       0xbe obj\debug\freertos_lib\queue.o
                0x08002fdc                xQueueGenericCreate
 .text.prvInitialiseNewQueue
                0x0800309a       0x46 obj\debug\freertos_lib\queue.o
 .text.xQueueGenericSend
                0x080030e0      0x200 obj\debug\freertos_lib\queue.o
                0x080030e0                xQueueGenericSend
 .text.xQueueGenericSendFromISR
                0x080032e0      0x154 obj\debug\freertos_lib\queue.o
                0x080032e0                xQueueGenericSendFromISR
 .text.xQueueReceive
                0x08003434      0x1c0 obj\debug\freertos_lib\queue.o
                0x08003434                xQueueReceive
 .text.xQueueSemaphoreTake
                0x080035f4      0x218 obj\debug\freertos_lib\queue.o
                0x080035f4                xQueueSemaphoreTake
 .text.prvGetDisinheritPriorityAfterTimeout
                0x0800380c       0x30 obj\debug\freertos_lib\queue.o
 .text.prvCopyDataToQueue
                0x0800383c       0xd4 obj\debug\freertos_lib\queue.o
 .text.prvCopyDataFromQueue
                0x08003910       0x4c obj\debug\freertos_lib\queue.o
 .text.prvUnlockQueue
                0x0800395c       0xa4 obj\debug\freertos_lib\queue.o
 .text.prvIsQueueEmpty
                0x08003a00       0x2c obj\debug\freertos_lib\queue.o
 .text.prvIsQueueFull
                0x08003a2c       0x30 obj\debug\freertos_lib\queue.o
 .text.vQueueAddToRegistry
                0x08003a5c       0x54 obj\debug\freertos_lib\queue.o
                0x08003a5c                vQueueAddToRegistry
 .text.vQueueWaitForMessageRestricted
                0x08003ab0       0x6a obj\debug\freertos_lib\queue.o
                0x08003ab0                vQueueWaitForMessageRestricted
 .text.xTaskCreate
                0x08003b1a       0x82 obj\debug\freertos_lib\tasks.o
                0x08003b1a                xTaskCreate
 .text.prvInitialiseNewTask
                0x08003b9c      0x130 obj\debug\freertos_lib\tasks.o
 .text.prvAddNewTaskToReadyList
                0x08003ccc       0xdc obj\debug\freertos_lib\tasks.o
 .text.xTaskDelayUntil
                0x08003da8      0x100 obj\debug\freertos_lib\tasks.o
                0x08003da8                xTaskDelayUntil
 .text.vTaskDelay
                0x08003ea8       0x6c obj\debug\freertos_lib\tasks.o
                0x08003ea8                vTaskDelay
 .text.vTaskPrioritySet
                0x08003f14      0x158 obj\debug\freertos_lib\tasks.o
                0x08003f14                vTaskPrioritySet
 .text.vTaskSuspend
                0x0800406c      0x140 obj\debug\freertos_lib\tasks.o
                0x0800406c                vTaskSuspend
 .text.prvTaskIsTaskSuspended
                0x080041ac       0x64 obj\debug\freertos_lib\tasks.o
 .text.vTaskResume
                0x08004210       0xbc obj\debug\freertos_lib\tasks.o
                0x08004210                vTaskResume
 .text.vTaskStartScheduler
                0x080042cc       0xa4 obj\debug\freertos_lib\tasks.o
                0x080042cc                vTaskStartScheduler
 .text.vTaskSuspendAll
                0x08004370       0x1c obj\debug\freertos_lib\tasks.o
                0x08004370                vTaskSuspendAll
 .text.xTaskResumeAll
                0x0800438c      0x138 obj\debug\freertos_lib\tasks.o
                0x0800438c                xTaskResumeAll
 .text.xTaskGetTickCount
                0x080044c4       0x24 obj\debug\freertos_lib\tasks.o
                0x080044c4                xTaskGetTickCount
 .text.xTaskIncrementTick
                0x080044e8      0x18c obj\debug\freertos_lib\tasks.o
                0x080044e8                xTaskIncrementTick
 .text.vTaskSwitchContext
                0x08004674      0x100 obj\debug\freertos_lib\tasks.o
                0x08004674                vTaskSwitchContext
 .text.vTaskPlaceOnEventList
                0x08004774       0x4c obj\debug\freertos_lib\tasks.o
                0x08004774                vTaskPlaceOnEventList
 .text.vTaskPlaceOnEventListRestricted
                0x080047c0       0x5c obj\debug\freertos_lib\tasks.o
                0x080047c0                vTaskPlaceOnEventListRestricted
 .text.xTaskRemoveFromEventList
                0x0800481c       0xc4 obj\debug\freertos_lib\tasks.o
                0x0800481c                xTaskRemoveFromEventList
 .text.vTaskInternalSetTimeOutState
                0x080048e0       0x30 obj\debug\freertos_lib\tasks.o
                0x080048e0                vTaskInternalSetTimeOutState
 .text.xTaskCheckForTimeOut
                0x08004910       0xd0 obj\debug\freertos_lib\tasks.o
                0x08004910                xTaskCheckForTimeOut
 .text.vTaskMissedYield
                0x080049e0       0x18 obj\debug\freertos_lib\tasks.o
                0x080049e0                vTaskMissedYield
 .text.prvIdleTask
                0x080049f8       0x34 obj\debug\freertos_lib\tasks.o
 .text.prvInitialiseTaskLists
                0x08004a2c       0x80 obj\debug\freertos_lib\tasks.o
 .text.prvCheckTasksWaitingTermination
                0x08004aac       0x5c obj\debug\freertos_lib\tasks.o
 .text.prvDeleteTCB
                0x08004b08       0x20 obj\debug\freertos_lib\tasks.o
 .text.prvResetNextTaskUnblockTime
                0x08004b28       0x38 obj\debug\freertos_lib\tasks.o
 .text.xTaskGetSchedulerState
                0x08004b60       0x3c obj\debug\freertos_lib\tasks.o
                0x08004b60                xTaskGetSchedulerState
 .text.xTaskPriorityInherit
                0x08004b9c       0xf0 obj\debug\freertos_lib\tasks.o
                0x08004b9c                xTaskPriorityInherit
 .text.xTaskPriorityDisinherit
                0x08004c8c       0xf8 obj\debug\freertos_lib\tasks.o
                0x08004c8c                xTaskPriorityDisinherit
 .text.vTaskPriorityDisinheritAfterTimeout
                0x08004d84      0x124 obj\debug\freertos_lib\tasks.o
                0x08004d84                vTaskPriorityDisinheritAfterTimeout
 .text.pvTaskIncrementMutexHeldCount
                0x08004ea8       0x28 obj\debug\freertos_lib\tasks.o
                0x08004ea8                pvTaskIncrementMutexHeldCount
 .text.prvAddCurrentTaskToDelayedList
                0x08004ed0       0xd0 obj\debug\freertos_lib\tasks.o
 .text.xTimerCreateTimerTask
                0x08004fa0       0x64 obj\debug\freertos_lib\timers.o
                0x08004fa0                xTimerCreateTimerTask
 .text.xTimerGenericCommand
                0x08005004       0x9c obj\debug\freertos_lib\timers.o
                0x08005004                xTimerGenericCommand
 .text.prvProcessExpiredTimer
                0x080050a0       0xa0 obj\debug\freertos_lib\timers.o
 .text.prvTimerTask
                0x08005140       0x28 obj\debug\freertos_lib\timers.o
 .text.prvProcessTimerOrBlockTask
                0x08005168       0xa4 obj\debug\freertos_lib\timers.o
 .text.prvGetNextExpireTime
                0x0800520c       0x48 obj\debug\freertos_lib\timers.o
 .text.prvSampleTimeNow
                0x08005254       0x40 obj\debug\freertos_lib\timers.o
 .text.prvInsertTimerInActiveList
                0x08005294       0x94 obj\debug\freertos_lib\timers.o
 .text.prvProcessReceivedCommands
                0x08005328      0x194 obj\debug\freertos_lib\timers.o
 .text.prvSwitchTimerLists
                0x080054bc       0xc8 obj\debug\freertos_lib\timers.o
 .text.prvCheckForValidListAndQueue
                0x08005584       0x6c obj\debug\freertos_lib\timers.o
 .text.ModBus_Init
                0x080055f0       0x90 obj\debug\modbus\modbus.o
                0x080055f0                ModBus_Init
 .text.ModBus_QueueClear
                0x08005680       0x58 obj\debug\modbus\modbus.o
                0x08005680                ModBus_QueueClear
 .text.LRC_Counting
                0x080056d8       0x40 obj\debug\modbus\modbus.o
                0x080056d8                LRC_Counting
 .text.ModBus_DEC_TO_ASCII_Converter
                0x08005718       0x5c obj\debug\modbus\modbus.o
                0x08005718                ModBus_DEC_TO_ASCII_Converter
 .text.ModBus_HEX_TO_ASCII_Converter
                0x08005774       0x78 obj\debug\modbus\modbus.o
                0x08005774                ModBus_HEX_TO_ASCII_Converter
 .text.ModBus_ASCII_TO_HEX_Converter
                0x080057ec       0x72 obj\debug\modbus\modbus.o
                0x080057ec                ModBus_ASCII_TO_HEX_Converter
 *fill*         0x0800585e        0x2 
 .text.ModBus_ClearMsgs
                0x08005860       0x3c obj\debug\modbus\modbus.o
                0x08005860                ModBus_ClearMsgs
 .text.ModBus_CheckFrame
                0x0800589c       0x84 obj\debug\modbus\modbus.o
                0x0800589c                ModBus_CheckFrame
 .text.ModBus_ParsePacket
                0x08005920      0x180 obj\debug\modbus\modbus.o
                0x08005920                ModBus_ParsePacket
 .text.ModBus_IsFull_Queue
                0x08005aa0       0x78 obj\debug\modbus\modbus.o
                0x08005aa0                ModBus_IsFull_Queue
 .text.ModBus_SendResponse
                0x08005b18       0x2c obj\debug\modbus\modbus.o
                0x08005b18                ModBus_SendResponse
 .text.ModBus_PutQueue
                0x08005b44       0x5c obj\debug\modbus\modbus.o
                0x08005b44                ModBus_PutQueue
 .text.ModBus_SendResponseSpeed
                0x08005ba0      0x128 obj\debug\modbus\modbus.o
                0x08005ba0                ModBus_SendResponseSpeed
 .text.Get_Queue
                0x08005cc8       0x20 obj\debug\modbus\modbus.o
                0x08005cc8                Get_Queue
 .text.ModBus_SendByte
                0x08005ce8       0x84 obj\debug\modbus\modbus.o
                0x08005ce8                ModBus_SendByte
 .text.Move_Clutch
                0x08005d6c       0xe8 obj\debug\src\carmanagement.o
                0x08005d6c                Move_Clutch
 .text.Get_Clutch
                0x08005e54       0x40 obj\debug\src\carmanagement.o
                0x08005e54                Get_Clutch
 .text.Get_Transmission
                0x08005e94       0x8c obj\debug\src\carmanagement.o
                0x08005e94                Get_Transmission
 .text.Set_Transmission
                0x08005f20      0x128 obj\debug\src\carmanagement.o
                0x08005f20                Set_Transmission
 .text.Median_Filter
                0x08006048      0x114 obj\debug\src\carmanagement.o
                0x08006048                Median_Filter
 .text.move_transmission_to_certain_state
                0x0800615c      0x100 obj\debug\src\carmanagement.o
                0x0800615c                move_transmission_to_certain_state
 .text.Set_Gas  0x0800625c       0x70 obj\debug\src\carmanagement.o
                0x0800625c                Set_Gas
 .text.Set_Brake
                0x080062cc       0x40 obj\debug\src\carmanagement.o
                0x080062cc                Set_Brake
 .text.Get_Brake
                0x0800630c       0x2c obj\debug\src\carmanagement.o
                0x0800630c                Get_Brake
 .text.MoveTo   0x08006338       0xa8 obj\debug\src\carmanagement.o
                0x08006338                MoveTo
 .text.Speed_Calc_Car_HighFreq
                0x080063e0      0x200 obj\debug\src\carregulators.o
                0x080063e0                Speed_Calc_Car_HighFreq
 .text.Speed_Calc_Transmission
                0x080065e0       0xc4 obj\debug\src\carregulators.o
                0x080065e0                Speed_Calc_Transmission
 .text.PID_Init
                0x080066a4      0x12c obj\debug\src\carregulators.o
                0x080066a4                PID_Init
 .text.PID_Calc
                0x080067d0      0x146 obj\debug\src\carregulators.o
                0x080067d0                PID_Calc
 *fill*         0x08006916        0x2 
 .text.main     0x08006918      0x2c0 obj\debug\src\main.o
                0x08006918                main
 .text.vApplicationTickHook
                0x08006bd8       0x30 obj\debug\src\robot_tasks.o
                0x08006bd8                vApplicationTickHook
 .text.vApplicationIdleHook
                0x08006c08        0xe obj\debug\src\robot_tasks.o
                0x08006c08                vApplicationIdleHook
 .text.vApplicationStackOverflowHook
                0x08006c16       0x16 obj\debug\src\robot_tasks.o
                0x08006c16                vApplicationStackOverflowHook
 .text.vApplicationMallocFailedHook
                0x08006c2c        0xe obj\debug\src\robot_tasks.o
                0x08006c2c                vApplicationMallocFailedHook
 *fill*         0x08006c3a        0x2 
 .text.vRobotGo
                0x08006c3c       0xb8 obj\debug\src\robot_tasks.o
                0x08006c3c                vRobotGo
 .text.vStart   0x08006cf4      0x1f4 obj\debug\src\robot_tasks.o
                0x08006cf4                vStart
 .text.vWaitingEvent
                0x08006ee8       0x34 obj\debug\src\robot_tasks.o
                0x08006ee8                vWaitingEvent
 .text.vMessageSending
                0x08006f1c       0x68 obj\debug\src\robot_tasks.o
                0x08006f1c                vMessageSending
 .text.vClutchManagement
                0x08006f84      0x110 obj\debug\src\robot_tasks.o
                0x08006f84                vClutchManagement
 .text.vBrakeManagement
                0x08007094       0xb4 obj\debug\src\robot_tasks.o
                0x08007094                vBrakeManagement
 .text.vGasManagement
                0x08007148       0xb0 obj\debug\src\robot_tasks.o
                0x08007148                vGasManagement
 .text.vManagementGearsBox
                0x080071f8       0x94 obj\debug\src\robot_tasks.o
                0x080071f8                vManagementGearsBox
 *fill*         0x0800728c        0x4 
 .text.vModBusManagement
                0x08007290       0xf0 obj\debug\src\robot_tasks.o
                0x08007290                vModBusManagement
 .text.vSecurityMemoryManagement
                0x08007380      0x99c obj\debug\src\robot_tasks.o
                0x08007380                vSecurityMemoryManagement
 .text.vTransmissionInit
                0x08007d1c       0x54 obj\debug\src\robot_tasks.o
                0x08007d1c                vTransmissionInit
 .text.USART3_IRQHandler
                0x08007d70       0x58 obj\debug\fil lib\interrupts.o
                0x08007d70                USART3_IRQHandler
 .text.TIM2_IRQHandler
                0x08007dc8       0x16 obj\debug\fil lib\interrupts.o
                0x08007dc8                TIM2_IRQHandler
 *fill*         0x08007dde        0x2 
 .text.TIM3_IRQHandler
                0x08007de0       0x18 obj\debug\fil lib\interrupts.o
                0x08007de0                TIM3_IRQHandler
 .text.TIM4_IRQHandler
                0x08007df8       0x18 obj\debug\fil lib\interrupts.o
                0x08007df8                TIM4_IRQHandler
 .text.TIM5_IRQHandler
                0x08007e10       0x18 obj\debug\fil lib\interrupts.o
                0x08007e10                TIM5_IRQHandler
 .text.TIM6_DAC_IRQHandler
                0x08007e28       0xb4 obj\debug\fil lib\interrupts.o
                0x08007e28                TIM6_DAC_IRQHandler
 *fill*         0x08007edc        0x4 
 .text.TIM7_IRQHandler
                0x08007ee0       0x78 obj\debug\fil lib\interrupts.o
                0x08007ee0                TIM7_IRQHandler
 .text.TIM8_UP_TIM13_IRQHandler
                0x08007f58       0x18 obj\debug\fil lib\interrupts.o
                0x08007f58                TIM8_UP_TIM13_IRQHandler
 .text.EXTI0_IRQHandler
                0x08007f70       0x2c obj\debug\fil lib\interrupts.o
                0x08007f70                EXTI0_IRQHandler
 .text.EXTI1_IRQHandler
                0x08007f9c       0x2c obj\debug\fil lib\interrupts.o
                0x08007f9c                EXTI1_IRQHandler
 .text.EXTI2_IRQHandler
                0x08007fc8       0x18 obj\debug\fil lib\interrupts.o
                0x08007fc8                EXTI2_IRQHandler
 .text.EXTI3_IRQHandler
                0x08007fe0       0x18 obj\debug\fil lib\interrupts.o
                0x08007fe0                EXTI3_IRQHandler
 .text.EXTI4_IRQHandler
                0x08007ff8       0x18 obj\debug\fil lib\interrupts.o
                0x08007ff8                EXTI4_IRQHandler
 .text.EXTI9_5_IRQHandler
                0x08008010       0x60 obj\debug\fil lib\interrupts.o
                0x08008010                EXTI9_5_IRQHandler
 .text.EXTI15_10_IRQHandler
                0x08008070       0x28 obj\debug\fil lib\interrupts.o
                0x08008070                EXTI15_10_IRQHandler
 .text.SystemInit
                0x08008098       0x6c obj\debug\src\system_stm32f4xx.o
                0x08008098                SystemInit
 .text.SetSysClock
                0x08008104       0xf8 obj\debug\src\system_stm32f4xx.o
 .text.memcpy   0x080081fc       0x1c d:/2.30/share/armgcc/bin/../lib/gcc/arm-none-eabi/9.3.1/../../../../arm-none-eabi/lib/thumb/v7e-m+fp/hard\libg_nano.a(lib_a-memcpy-stub.o)
                0x080081fc                memcpy
 .text.memset   0x08008218       0x10 d:/2.30/share/armgcc/bin/../lib/gcc/arm-none-eabi/9.3.1/../../../../arm-none-eabi/lib/thumb/v7e-m+fp/hard\libg_nano.a(lib_a-memset.o)
                0x08008218                memset
 *(.glue_7)
 .glue_7        0x08008228        0x0 linker stubs
 *(.glue_7t)
 .glue_7t       0x08008228        0x0 linker stubs
 *(.eh_frame)
 .eh_frame      0x08008228        0x0 d:/2.30/share/armgcc/bin/../lib/gcc/arm-none-eabi/9.3.1/thumb/v7e-m+fp/hard/crtbegin.o
 *(.init)
 .init          0x08008228        0x4 d:/2.30/share/armgcc/bin/../lib/gcc/arm-none-eabi/9.3.1/thumb/v7e-m+fp/hard/crti.o
                0x08008228                _init
 .init          0x0800822c        0x8 d:/2.30/share/armgcc/bin/../lib/gcc/arm-none-eabi/9.3.1/thumb/v7e-m+fp/hard/crtn.o
 *(.fini)
 .fini          0x08008234        0x4 d:/2.30/share/armgcc/bin/../lib/gcc/arm-none-eabi/9.3.1/thumb/v7e-m+fp/hard/crti.o
                0x08008234                _fini
 .fini          0x08008238        0x8 d:/2.30/share/armgcc/bin/../lib/gcc/arm-none-eabi/9.3.1/thumb/v7e-m+fp/hard/crtn.o
                0x08008240                . = ALIGN (0x4)
                0x08008240                _etext = .

.vfp11_veneer   0x08008240        0x0
 .vfp11_veneer  0x08008240        0x0 linker stubs

.v4_bx          0x08008240        0x0
 .v4_bx         0x08008240        0x0 linker stubs

.iplt           0x08008240        0x0
 .iplt          0x08008240        0x0 d:/2.30/share/armgcc/bin/../lib/gcc/arm-none-eabi/9.3.1/thumb/v7e-m+fp/hard/crtbegin.o

.rodata         0x08008240       0x70
                0x08008240                . = ALIGN (0x4)
 *(.rodata)
 .rodata        0x08008240        0x5 obj\debug\freertos_lib\tasks.o
 *fill*         0x08008245        0x3 
 .rodata        0x08008248        0xd obj\debug\freertos_lib\timers.o
 *fill*         0x08008255        0x3 
 .rodata        0x08008258       0x55 obj\debug\src\main.o
 *(.rodata*)
                0x080082b0                . = ALIGN (0x4)
 *fill*         0x080082ad        0x3 

.rel.dyn        0x080082b0        0x0
 .rel.iplt      0x080082b0        0x0 d:/2.30/share/armgcc/bin/../lib/gcc/arm-none-eabi/9.3.1/thumb/v7e-m+fp/hard/crtbegin.o

.ARM.extab
 *(.ARM.extab* .gnu.linkonce.armextab.*)

.ARM            0x080082b0        0x0
                0x080082b0                __exidx_start = .
 *(.ARM.exidx*)
                0x080082b0                __exidx_end = .

.preinit_array  0x080082b0        0x0
                0x080082b0                PROVIDE (__preinit_array_start = .)
 *(.preinit_array*)
                0x080082b0                PROVIDE (__preinit_array_end = .)

.init_array     0x080082b0        0x4
                0x080082b0                PROVIDE (__init_array_start = .)
 *(SORT_BY_NAME(.init_array.*))
 *(.init_array*)
 .init_array    0x080082b0        0x4 d:/2.30/share/armgcc/bin/../lib/gcc/arm-none-eabi/9.3.1/thumb/v7e-m+fp/hard/crtbegin.o
                0x080082b4                PROVIDE (__init_array_end = .)

.fini_array     0x080082b4        0x4
                [!provide]                PROVIDE (__fini_array_start = .)
 *(SORT_BY_NAME(.fini_array.*))
 *(.fini_array*)
 .fini_array    0x080082b4        0x4 d:/2.30/share/armgcc/bin/../lib/gcc/arm-none-eabi/9.3.1/thumb/v7e-m+fp/hard/crtbegin.o
                [!provide]                PROVIDE (__fini_array_end = .)
                0x080082b8                _sidata = LOADADDR (.data)

.data           0x20000000       0xa4 load address 0x080082b8
                0x20000000                . = ALIGN (0x4)
                0x20000000                _sdata = .
 *(.data)
 *(.data*)
 .data.DIR_List
                0x20000000       0x28 obj\debug\fil lib\rcr dstu\rcr_setupcustom.o
 .data.PWM_List
                0x20000028       0x28 obj\debug\fil lib\rcr dstu\rcr_setupcustom.o
 .data.xFreeBytesRemaining
                0x20000050        0x4 obj\debug\freertos_lib\heap_2.o
 .data.uxCriticalNesting
                0x20000054        0x4 obj\debug\freertos_lib\port.o
 .data.uxTopUsedPriority
                0x20000058        0x4 obj\debug\freertos_lib\tasks.o
                0x20000058                uxTopUsedPriority
 .data.StartFrameSend
                0x2000005c        0xf obj\debug\modbus\modbus.o
                0x2000005c                StartFrameSend
 *fill*         0x2000006b        0x1 
 .data.TransmissionManagementMatrix
                0x2000006c       0x20 obj\debug\src\carmanagement.o
 .data.Buffer_Index
                0x2000008c        0x4 obj\debug\src\carmanagement.o
                0x2000008c                Buffer_Index
 .data.encoderData
                0x20000090       0x10 obj\debug\src\carregulators.o
                0x20000090                encoderData
 .data.SystemCoreClock
                0x200000a0        0x4 obj\debug\src\system_stm32f4xx.o
                0x200000a0                SystemCoreClock
                0x200000a4                . = ALIGN (0x4)
                0x200000a4                _edata = .

.igot.plt       0x200000a4        0x0 load address 0x0800835c
 .igot.plt      0x200000a4        0x0 d:/2.30/share/armgcc/bin/../lib/gcc/arm-none-eabi/9.3.1/thumb/v7e-m+fp/hard/crtbegin.o
                0x200000a4                . = ALIGN (0x4)

.bss            0x200000a4    0x12f34 load address 0x0800835c
                0x200000a4                _sbss = .
                0x200000a4                __bss_start__ = _sbss
 *(.bss)
 .bss           0x200000a4       0x1c d:/2.30/share/armgcc/bin/../lib/gcc/arm-none-eabi/9.3.1/thumb/v7e-m+fp/hard/crtbegin.o
 *(.bss*)
 .bss.ucHeap    0x200000c0    0x12c00 obj\debug\freertos_lib\heap_2.o
 .bss.xStart    0x20012cc0        0x8 obj\debug\freertos_lib\heap_2.o
 .bss.xEnd      0x20012cc8        0x8 obj\debug\freertos_lib\heap_2.o
 .bss.xHeapHasBeenInitialised.8155
                0x20012cd0        0x4 obj\debug\freertos_lib\heap_2.o
 .bss.ucMaxSysCallPriority
                0x20012cd4        0x1 obj\debug\freertos_lib\port.o
 *fill*         0x20012cd5        0x3 
 .bss.ulMaxPRIGROUPValue
                0x20012cd8        0x4 obj\debug\freertos_lib\port.o
 .bss.pxCurrentTCB
                0x20012cdc        0x4 obj\debug\freertos_lib\tasks.o
                0x20012cdc                pxCurrentTCB
 .bss.pxReadyTasksLists
                0x20012ce0       0x64 obj\debug\freertos_lib\tasks.o
 .bss.xDelayedTaskList1
                0x20012d44       0x14 obj\debug\freertos_lib\tasks.o
 .bss.xDelayedTaskList2
                0x20012d58       0x14 obj\debug\freertos_lib\tasks.o
 .bss.pxDelayedTaskList
                0x20012d6c        0x4 obj\debug\freertos_lib\tasks.o
 .bss.pxOverflowDelayedTaskList
                0x20012d70        0x4 obj\debug\freertos_lib\tasks.o
 .bss.xPendingReadyList
                0x20012d74       0x14 obj\debug\freertos_lib\tasks.o
 .bss.xTasksWaitingTermination
                0x20012d88       0x14 obj\debug\freertos_lib\tasks.o
 .bss.uxDeletedTasksWaitingCleanUp
                0x20012d9c        0x4 obj\debug\freertos_lib\tasks.o
 .bss.xSuspendedTaskList
                0x20012da0       0x14 obj\debug\freertos_lib\tasks.o
 .bss.uxCurrentNumberOfTasks
                0x20012db4        0x4 obj\debug\freertos_lib\tasks.o
 .bss.xTickCount
                0x20012db8        0x2 obj\debug\freertos_lib\tasks.o
 *fill*         0x20012dba        0x2 
 .bss.uxTopReadyPriority
                0x20012dbc        0x4 obj\debug\freertos_lib\tasks.o
 .bss.xSchedulerRunning
                0x20012dc0        0x4 obj\debug\freertos_lib\tasks.o
 .bss.xPendedTicks
                0x20012dc4        0x2 obj\debug\freertos_lib\tasks.o
 *fill*         0x20012dc6        0x2 
 .bss.xYieldPending
                0x20012dc8        0x4 obj\debug\freertos_lib\tasks.o
 .bss.xNumOfOverflows
                0x20012dcc        0x4 obj\debug\freertos_lib\tasks.o
 .bss.uxTaskNumber
                0x20012dd0        0x4 obj\debug\freertos_lib\tasks.o
 .bss.xNextTaskUnblockTime
                0x20012dd4        0x2 obj\debug\freertos_lib\tasks.o
 *fill*         0x20012dd6        0x2 
 .bss.xIdleTaskHandle
                0x20012dd8        0x4 obj\debug\freertos_lib\tasks.o
 .bss.uxSchedulerSuspended
                0x20012ddc        0x4 obj\debug\freertos_lib\tasks.o
 .bss.xActiveTimerList1
                0x20012de0       0x14 obj\debug\freertos_lib\timers.o
 .bss.xActiveTimerList2
                0x20012df4       0x14 obj\debug\freertos_lib\timers.o
 .bss.pxCurrentTimerList
                0x20012e08        0x4 obj\debug\freertos_lib\timers.o
 .bss.pxOverflowTimerList
                0x20012e0c        0x4 obj\debug\freertos_lib\timers.o
 .bss.xTimerQueue
                0x20012e10        0x4 obj\debug\freertos_lib\timers.o
 .bss.xTimerTaskHandle
                0x20012e14        0x4 obj\debug\freertos_lib\timers.o
 .bss.xLastTime.8467
                0x20012e18        0x2 obj\debug\freertos_lib\timers.o
 *fill*         0x20012e1a        0x2 
 .bss.Error     0x20012e1c        0x4 obj\debug\modbus\modbus.o
 .bss.UARTBufferSlaveAddrIndex.9008
                0x20012e20        0x4 obj\debug\modbus\modbus.o
 .bss.ADC_Buffer
                0x20012e24       0x14 obj\debug\src\carmanagement.o
                0x20012e24                ADC_Buffer
 .bss.Data      0x20012e38        0x8 obj\debug\src\carregulators.o
                0x20012e38                Data
 .bss.ZeroCounts
                0x20012e40        0x4 obj\debug\src\carregulators.o
                0x20012e40                ZeroCounts
 *(COMMON)
 COMMON         0x20012e44      0x120 obj\debug\fil lib\rcr dstu\rcr_setupcustom.o
                0x20012e44                xRobotGo
                0x20012e48                xStartHandle
                0x20012e4c                xGasHandle
                0x20012e50                LPulseWheel
                0x20012e54                UARTBufferEndMsgPointer
                0x20012e58                xQueueManagHandle
                0x20012e5c                xStartEvent
                0x20012e60                UARTReceiver_Flag
                0x20012e64                xQueueClutchHandle
                0x20012e68                xBrakeHandle
                0x20012e6c                Queue_StartIndex
                0x20012e70                xQueueBrakeHandle
                0x20012e74                xQueueTransmissionHandle
                0x20012e78                xEventStatus
                0x20012e7c                xMailHandle
                0x20012e80                UART_Buffer
                0x20012e8f                Brake_Flag
                0x20012e90                UARTBufferIndex
                0x20012e94                UARTTransmit_Flag
                0x20012e98                Clutch_Flag
                0x20012e9c                xClutchHandle
                0x20012ea0                xUARTEvent
                0x20012ea4                xTrInit
                0x20012ea8                Transmission_Flag
                0x20012eac                xWaitingHandle
                0x20012eb0                xGearsHandle
                0x20012eb4                Queue_EndIndex
                0x20012eb8                StartFlags
                0x20012ec0                adc_data
                0x20012ed4                QueueBuffer_To_UART
                0x20012ee4                RPulseWheel
                0x20012ee8                xQueueGasHandle
                0x20012eec                UARTBufferLRCIndex
                0x20012ef0                xQueue20Handle
                0x20012ef4                xModBusHandle
                0x20012ef8                Queue_Index
                0x20012efc                Current_Velocity
                0x20012f00                TransmissionReg
                0x20012f60                UARTBufferStartMsgPointer
 COMMON         0x20012f64       0x40 obj\debug\freertos_lib\queue.o
                0x20012f64                xQueueRegistry
 COMMON         0x20012fa4        0xc obj\debug\modbus\modbus.o
                0x20012fa4                LRCPointer
                0x20012fa8                StartDataSendIndex
                0x20012fac                QueueIndexTx
 COMMON         0x20012fb0        0x2 obj\debug\src\carmanagement.o
                0x20012fb0                data
 *fill*         0x20012fb2        0x2 
 COMMON         0x20012fb4        0xc obj\debug\src\carregulators.o
                0x20012fb4                Step
                0x20012fb8                leftPeriod
                0x20012fbc                rightPeriod
 COMMON         0x20012fc0        0xc obj\debug\src\robot_tasks.o
                0x20012fc0                ZeroMesFlag
                0x20012fc4                ErrorTask
                0x20012fc8                TargetSpeed
 COMMON         0x20012fcc        0xc obj\debug\fil lib\interrupts.o
                0x20012fcc                globalRangeTransmission
                0x20012fd0                Period_Right
                0x20012fd4                Period_left
                0x20012fd8                . = ALIGN (0x4)
                0x20012fd8                _ebss = .
                0x20012fd8                __bss_end__ = _ebss

.heap           0x20012fd8        0x0 load address 0x0800835c
                0x20012fd8                . = ALIGN (0x4)
                [!provide]                PROVIDE (end = .)
                [!provide]                PROVIDE (_end = .)
 *(.heap*)
                0x20012fd8                . = (. + _Min_Heap_Size)
                0x20012fd8                __HeapLimit = .
                0x20012fd8                . = ALIGN (0x4)

.ARM.attributes
                0x00000000       0x30
 *(.ARM.attributes)
 .ARM.attributes
                0x00000000       0x1e d:/2.30/share/armgcc/bin/../lib/gcc/arm-none-eabi/9.3.1/thumb/v7e-m+fp/hard/crti.o
 .ARM.attributes
                0x0000001e       0x34 d:/2.30/share/armgcc/bin/../lib/gcc/arm-none-eabi/9.3.1/thumb/v7e-m+fp/hard/crtbegin.o
 .ARM.attributes
                0x00000052       0x21 obj\debug\src\startup_stm32f407xx.o
 .ARM.attributes
                0x00000073       0x34 obj\debug\fil lib\rcr dstu\rcr_setupcustom.o
 .ARM.attributes
                0x000000a7       0x34 obj\debug\freertos_lib\heap_2.o
 .ARM.attributes
                0x000000db       0x34 obj\debug\freertos_lib\list.o
 .ARM.attributes
                0x0000010f       0x34 obj\debug\freertos_lib\port.o
 .ARM.attributes
                0x00000143       0x34 obj\debug\freertos_lib\queue.o
 .ARM.attributes
                0x00000177       0x34 obj\debug\freertos_lib\tasks.o
 .ARM.attributes
                0x000001ab       0x34 obj\debug\freertos_lib\timers.o
 .ARM.attributes
                0x000001df       0x34 obj\debug\modbus\modbus.o
 .ARM.attributes
                0x00000213       0x34 obj\debug\src\carmanagement.o
 .ARM.attributes
                0x00000247       0x34 obj\debug\src\carregulators.o
 .ARM.attributes
                0x0000027b       0x34 obj\debug\src\main.o
 .ARM.attributes
                0x000002af       0x34 obj\debug\src\robot_tasks.o
 .ARM.attributes
                0x000002e3       0x34 obj\debug\fil lib\interrupts.o
 .ARM.attributes
                0x00000317       0x34 obj\debug\src\system_stm32f4xx.o
 .ARM.attributes
                0x0000034b       0x1e d:/2.30/share/armgcc/bin/../lib/gcc/arm-none-eabi/9.3.1/thumb/v7e-m+fp/hard\libgcc.a(_arm_addsubdf3.o)
 .ARM.attributes
                0x00000369       0x1e d:/2.30/share/armgcc/bin/../lib/gcc/arm-none-eabi/9.3.1/thumb/v7e-m+fp/hard\libgcc.a(_arm_muldivdf3.o)
 .ARM.attributes
                0x00000387       0x1e d:/2.30/share/armgcc/bin/../lib/gcc/arm-none-eabi/9.3.1/thumb/v7e-m+fp/hard\libgcc.a(_arm_cmpdf2.o)
 .ARM.attributes
                0x000003a5       0x1e d:/2.30/share/armgcc/bin/../lib/gcc/arm-none-eabi/9.3.1/thumb/v7e-m+fp/hard\libgcc.a(_arm_truncdfsf2.o)
 .ARM.attributes
                0x000003c3       0x34 d:/2.30/share/armgcc/bin/../lib/gcc/arm-none-eabi/9.3.1/../../../../arm-none-eabi/lib/thumb/v7e-m+fp/hard\libg_nano.a(lib_a-memcpy-stub.o)
 .ARM.attributes
                0x000003f7       0x34 d:/2.30/share/armgcc/bin/../lib/gcc/arm-none-eabi/9.3.1/../../../../arm-none-eabi/lib/thumb/v7e-m+fp/hard\libg_nano.a(lib_a-memset.o)
 .ARM.attributes
                0x0000042b       0x1e d:/2.30/share/armgcc/bin/../lib/gcc/arm-none-eabi/9.3.1/thumb/v7e-m+fp/hard/crtn.o
                0x2001ff00                __StackLimit = (_estack - _Min_Stack_Size)
                0x00000001                ASSERT ((__StackLimit >= __HeapLimit), Region RAM overflowed with stack)
LOAD obj\debug\src\startup_stm32f407xx.o
LOAD obj\debug\fil lib\rcr dstu\rcr_setupcustom.o
LOAD obj\debug\freertos_lib\croutine.o
LOAD obj\debug\freertos_lib\event_groups.o
LOAD obj\debug\freertos_lib\heap_2.o
LOAD obj\debug\freertos_lib\list.o
LOAD obj\debug\freertos_lib\port.o
LOAD obj\debug\freertos_lib\queue.o
LOAD obj\debug\freertos_lib\stream_buffer.o
LOAD obj\debug\freertos_lib\tasks.o
LOAD obj\debug\freertos_lib\timers.o
LOAD obj\debug\modbus\modbus.o
LOAD obj\debug\src\carmanagement.o
LOAD obj\debug\src\carregulators.o
LOAD obj\debug\src\main.o
LOAD obj\debug\src\robot_tasks.o
LOAD obj\debug\fil lib\interrupts.o
LOAD obj\debug\src\system_stm32f4xx.o
START GROUP
LOAD d:/2.30/share/armgcc/bin/../lib/gcc/arm-none-eabi/9.3.1/thumb/v7e-m+fp/hard\libgcc.a
LOAD d:/2.30/share/armgcc/bin/../lib/gcc/arm-none-eabi/9.3.1/../../../../arm-none-eabi/lib/thumb/v7e-m+fp/hard\libg_nano.a
LOAD d:/2.30/share/armgcc/bin/../lib/gcc/arm-none-eabi/9.3.1/../../../../arm-none-eabi/lib/thumb/v7e-m+fp/hard\libc_nano.a
END GROUP
START GROUP
LOAD d:/2.30/share/armgcc/bin/../lib/gcc/arm-none-eabi/9.3.1/thumb/v7e-m+fp/hard\libgcc.a
LOAD d:/2.30/share/armgcc/bin/../lib/gcc/arm-none-eabi/9.3.1/../../../../arm-none-eabi/lib/thumb/v7e-m+fp/hard\libc_nano.a
LOAD d:/2.30/share/armgcc/bin/../lib/gcc/arm-none-eabi/9.3.1/../../../../arm-none-eabi/lib/thumb/v7e-m+fp/hard\libnosys.a
END GROUP
START GROUP
LOAD d:/2.30/share/armgcc/bin/../lib/gcc/arm-none-eabi/9.3.1/thumb/v7e-m+fp/hard\libgcc.a
LOAD d:/2.30/share/armgcc/bin/../lib/gcc/arm-none-eabi/9.3.1/../../../../arm-none-eabi/lib/thumb/v7e-m+fp/hard\libc_nano.a
LOAD d:/2.30/share/armgcc/bin/../lib/gcc/arm-none-eabi/9.3.1/../../../../arm-none-eabi/lib/thumb/v7e-m+fp/hard\libnosys.a
END GROUP
LOAD d:/2.30/share/armgcc/bin/../lib/gcc/arm-none-eabi/9.3.1/thumb/v7e-m+fp/hard/crtend.o
LOAD d:/2.30/share/armgcc/bin/../lib/gcc/arm-none-eabi/9.3.1/thumb/v7e-m+fp/hard/crtn.o
OUTPUT(bin\Debug\robocross.elf elf32-littlearm)
LOAD linker stubs

.debug_line     0x00000000     0x6877
 .debug_line    0x00000000       0x77 obj\debug\src\startup_stm32f407xx.o
 .debug_line    0x00000077      0x4be obj\debug\fil lib\rcr dstu\rcr_setupcustom.o
 .debug_line    0x00000535      0x33c obj\debug\freertos_lib\heap_2.o
 .debug_line    0x00000871      0x2ba obj\debug\freertos_lib\list.o
 .debug_line    0x00000b2b      0x450 obj\debug\freertos_lib\port.o
 .debug_line    0x00000f7b     0x1131 obj\debug\freertos_lib\queue.o
 .debug_line    0x000020ac     0x1822 obj\debug\freertos_lib\tasks.o
 .debug_line    0x000038ce      0x816 obj\debug\freertos_lib\timers.o
 .debug_line    0x000040e4      0x719 obj\debug\modbus\modbus.o
 .debug_line    0x000047fd      0x760 obj\debug\src\carmanagement.o
 .debug_line    0x00004f5d      0x55c obj\debug\src\carregulators.o
 .debug_line    0x000054b9      0x27e obj\debug\src\main.o
 .debug_line    0x00005737      0xa6c obj\debug\src\robot_tasks.o
 .debug_line    0x000061a3      0x44f obj\debug\fil lib\interrupts.o
 .debug_line    0x000065f2      0x285 obj\debug\src\system_stm32f4xx.o

.debug_info     0x00000000    0x10b74
 .debug_info    0x00000000       0x22 obj\debug\src\startup_stm32f407xx.o
 .debug_info    0x00000022     0x1a42 obj\debug\fil lib\rcr dstu\rcr_setupcustom.o
 .debug_info    0x00001a64      0xc23 obj\debug\freertos_lib\heap_2.o
 .debug_info    0x00002687      0xbc0 obj\debug\freertos_lib\list.o
 .debug_info    0x00003247      0x548 obj\debug\freertos_lib\port.o
 .debug_info    0x0000378f     0x201d obj\debug\freertos_lib\queue.o
 .debug_info    0x000057ac     0x2a32 obj\debug\freertos_lib\tasks.o
 .debug_info    0x000081de     0x15a5 obj\debug\freertos_lib\timers.o
 .debug_info    0x00009783     0x1446 obj\debug\modbus\modbus.o
 .debug_info    0x0000abc9     0x1311 obj\debug\src\carmanagement.o
 .debug_info    0x0000beda     0x1262 obj\debug\src\carregulators.o
 .debug_info    0x0000d13c      0xe89 obj\debug\src\main.o
 .debug_info    0x0000dfc5     0x121c obj\debug\src\robot_tasks.o
 .debug_info    0x0000f1e1     0x132b obj\debug\fil lib\interrupts.o
 .debug_info    0x0001050c      0x668 obj\debug\src\system_stm32f4xx.o

.debug_abbrev   0x00000000     0x26c0
 .debug_abbrev  0x00000000       0x12 obj\debug\src\startup_stm32f407xx.o
 .debug_abbrev  0x00000012      0x338 obj\debug\fil lib\rcr dstu\rcr_setupcustom.o
 .debug_abbrev  0x0000034a      0x305 obj\debug\freertos_lib\heap_2.o
 .debug_abbrev  0x0000064f      0x232 obj\debug\freertos_lib\list.o
 .debug_abbrev  0x00000881      0x241 obj\debug\freertos_lib\port.o
 .debug_abbrev  0x00000ac2      0x36e obj\debug\freertos_lib\queue.o
 .debug_abbrev  0x00000e30      0x3e8 obj\debug\freertos_lib\tasks.o
 .debug_abbrev  0x00001218      0x338 obj\debug\freertos_lib\timers.o
 .debug_abbrev  0x00001550      0x360 obj\debug\modbus\modbus.o
 .debug_abbrev  0x000018b0      0x2eb obj\debug\src\carmanagement.o
 .debug_abbrev  0x00001b9b      0x28e obj\debug\src\carregulators.o
 .debug_abbrev  0x00001e29      0x1fc obj\debug\src\main.o
 .debug_abbrev  0x00002025      0x2c8 obj\debug\src\robot_tasks.o
 .debug_abbrev  0x000022ed      0x25b obj\debug\fil lib\interrupts.o
 .debug_abbrev  0x00002548      0x178 obj\debug\src\system_stm32f4xx.o

.debug_aranges  0x00000000      0x848
 .debug_aranges
                0x00000000       0x28 obj\debug\src\startup_stm32f407xx.o
 .debug_aranges
                0x00000028       0x68 obj\debug\fil lib\rcr dstu\rcr_setupcustom.o
 .debug_aranges
                0x00000090       0x40 obj\debug\freertos_lib\heap_2.o
 .debug_aranges
                0x000000d0       0x40 obj\debug\freertos_lib\list.o
 .debug_aranges
                0x00000110       0x80 obj\debug\freertos_lib\port.o
 .debug_aranges
                0x00000190      0x130 obj\debug\freertos_lib\queue.o
 .debug_aranges
                0x000002c0      0x1f8 obj\debug\freertos_lib\tasks.o
 .debug_aranges
                0x000004b8       0xd8 obj\debug\freertos_lib\timers.o
 .debug_aranges
                0x00000590       0x90 obj\debug\modbus\modbus.o
 .debug_aranges
                0x00000620       0x70 obj\debug\src\carmanagement.o
 .debug_aranges
                0x00000690       0x40 obj\debug\src\carregulators.o
 .debug_aranges
                0x000006d0       0x20 obj\debug\src\main.o
 .debug_aranges
                0x000006f0       0x90 obj\debug\src\robot_tasks.o
 .debug_aranges
                0x00000780       0x98 obj\debug\fil lib\interrupts.o
 .debug_aranges
                0x00000818       0x30 obj\debug\src\system_stm32f4xx.o

.debug_str      0x00000000     0x3799
 .debug_str     0x00000000       0x63 obj\debug\src\startup_stm32f407xx.o
 .debug_str     0x00000063     0x1135 obj\debug\fil lib\rcr dstu\rcr_setupcustom.o
                               0x11fb (size before relaxing)
 .debug_str     0x00001198      0x1a2 obj\debug\freertos_lib\heap_2.o
                                0x772 (size before relaxing)
 .debug_str     0x0000133a      0x13d obj\debug\freertos_lib\list.o
                                0x710 (size before relaxing)
 .debug_str     0x00001477      0x230 obj\debug\freertos_lib\port.o
                                0x45a (size before relaxing)
 .debug_str     0x000016a7      0x666 obj\debug\freertos_lib\queue.o
                                0xdc1 (size before relaxing)
 .debug_str     0x00001d0d      0xd09 obj\debug\freertos_lib\tasks.o
                               0x152c (size before relaxing)
 .debug_str     0x00002a16      0x46c obj\debug\freertos_lib\timers.o
                                0xbd1 (size before relaxing)
 .debug_str     0x00002e82      0x280 obj\debug\modbus\modbus.o
                                0xc74 (size before relaxing)
 .debug_str     0x00003102      0x132 obj\debug\src\carmanagement.o
                                0xbc8 (size before relaxing)
 .debug_str     0x00003234       0xfb obj\debug\src\carregulators.o
                                0xb91 (size before relaxing)
 .debug_str     0x0000332f       0x15 obj\debug\src\main.o
                                0x9e0 (size before relaxing)
 .debug_str     0x00003344      0x14f obj\debug\src\robot_tasks.o
                                0xb95 (size before relaxing)
 .debug_str     0x00003493      0x181 obj\debug\fil lib\interrupts.o
                                0xc37 (size before relaxing)
 .debug_str     0x00003614      0x185 obj\debug\src\system_stm32f4xx.o
                                0x40d (size before relaxing)

.debug_ranges   0x00000000      0x760
 .debug_ranges  0x00000000       0x20 obj\debug\src\startup_stm32f407xx.o
 .debug_ranges  0x00000020       0x58 obj\debug\fil lib\rcr dstu\rcr_setupcustom.o
 .debug_ranges  0x00000078       0x30 obj\debug\freertos_lib\heap_2.o
 .debug_ranges  0x000000a8       0x30 obj\debug\freertos_lib\list.o
 .debug_ranges  0x000000d8       0x70 obj\debug\freertos_lib\port.o
 .debug_ranges  0x00000148      0x120 obj\debug\freertos_lib\queue.o
 .debug_ranges  0x00000268      0x1e8 obj\debug\freertos_lib\tasks.o
 .debug_ranges  0x00000450       0xc8 obj\debug\freertos_lib\timers.o
 .debug_ranges  0x00000518       0x80 obj\debug\modbus\modbus.o
 .debug_ranges  0x00000598       0x60 obj\debug\src\carmanagement.o
 .debug_ranges  0x000005f8       0x30 obj\debug\src\carregulators.o
 .debug_ranges  0x00000628       0x10 obj\debug\src\main.o
 .debug_ranges  0x00000638       0x80 obj\debug\src\robot_tasks.o
 .debug_ranges  0x000006b8       0x88 obj\debug\fil lib\interrupts.o
 .debug_ranges  0x00000740       0x20 obj\debug\src\system_stm32f4xx.o

.comment        0x00000000       0x4c
 .comment       0x00000000       0x4c obj\debug\fil lib\rcr dstu\rcr_setupcustom.o
                                 0x4d (size before relaxing)
 .comment       0x0000004c       0x4d obj\debug\freertos_lib\heap_2.o
 .comment       0x0000004c       0x4d obj\debug\freertos_lib\list.o
 .comment       0x0000004c       0x4d obj\debug\freertos_lib\port.o
 .comment       0x0000004c       0x4d obj\debug\freertos_lib\queue.o
 .comment       0x0000004c       0x4d obj\debug\freertos_lib\tasks.o
 .comment       0x0000004c       0x4d obj\debug\freertos_lib\timers.o
 .comment       0x0000004c       0x4d obj\debug\modbus\modbus.o
 .comment       0x0000004c       0x4d obj\debug\src\carmanagement.o
 .comment       0x0000004c       0x4d obj\debug\src\carregulators.o
 .comment       0x0000004c       0x4d obj\debug\src\main.o
 .comment       0x0000004c       0x4d obj\debug\src\robot_tasks.o
 .comment       0x0000004c       0x4d obj\debug\fil lib\interrupts.o
 .comment       0x0000004c       0x4d obj\debug\src\system_stm32f4xx.o

.debug_frame    0x00000000     0x2180
 .debug_frame   0x00000000      0x164 obj\debug\fil lib\rcr dstu\rcr_setupcustom.o
 .debug_frame   0x00000164       0xc0 obj\debug\freertos_lib\heap_2.o
 .debug_frame   0x00000224       0xd8 obj\debug\freertos_lib\list.o
 .debug_frame   0x000002fc      0x1a8 obj\debug\freertos_lib\port.o
 .debug_frame   0x000004a4      0x534 obj\debug\freertos_lib\queue.o
 .debug_frame   0x000009d8      0x88c obj\debug\freertos_lib\tasks.o
 .debug_frame   0x00001264      0x38c obj\debug\freertos_lib\timers.o
 .debug_frame   0x000015f0      0x238 obj\debug\modbus\modbus.o
 .debug_frame   0x00001828      0x19c obj\debug\src\carmanagement.o
 .debug_frame   0x000019c4       0xcc obj\debug\src\carregulators.o
 .debug_frame   0x00001a90       0x34 obj\debug\src\main.o
 .debug_frame   0x00001ac4      0x1fc obj\debug\src\robot_tasks.o
 .debug_frame   0x00001cc0      0x218 obj\debug\fil lib\interrupts.o
 .debug_frame   0x00001ed8       0x7c obj\debug\src\system_stm32f4xx.o
 .debug_frame   0x00001f54       0xac d:/2.30/share/armgcc/bin/../lib/gcc/arm-none-eabi/9.3.1/thumb/v7e-m+fp/hard\libgcc.a(_arm_addsubdf3.o)
 .debug_frame   0x00002000       0x50 d:/2.30/share/armgcc/bin/../lib/gcc/arm-none-eabi/9.3.1/thumb/v7e-m+fp/hard\libgcc.a(_arm_muldivdf3.o)
 .debug_frame   0x00002050       0xc4 d:/2.30/share/armgcc/bin/../lib/gcc/arm-none-eabi/9.3.1/thumb/v7e-m+fp/hard\libgcc.a(_arm_cmpdf2.o)
 .debug_frame   0x00002114       0x24 d:/2.30/share/armgcc/bin/../lib/gcc/arm-none-eabi/9.3.1/thumb/v7e-m+fp/hard\libgcc.a(_arm_truncdfsf2.o)
 .debug_frame   0x00002138       0x28 d:/2.30/share/armgcc/bin/../lib/gcc/arm-none-eabi/9.3.1/../../../../arm-none-eabi/lib/thumb/v7e-m+fp/hard\libg_nano.a(lib_a-memcpy-stub.o)
 .debug_frame   0x00002160       0x20 d:/2.30/share/armgcc/bin/../lib/gcc/arm-none-eabi/9.3.1/../../../../arm-none-eabi/lib/thumb/v7e-m+fp/hard\libg_nano.a(lib_a-memset.o)
